
firmware.elf:     file format elf32-littlearm


Disassembly of section .text:

08000188 <putchar>:
 8000188:	4601      	mov	r1, r0
 800018a:	2000      	movs	r0, #0
 800018c:	f001 b85a 	b.w	8001244 <uart_tx>

08000190 <kbhit>:
 8000190:	b508      	push	{r3, lr}
 8000192:	2000      	movs	r0, #0
 8000194:	f001 f81c 	bl	80011d0 <uart_rxsize>
 8000198:	3800      	subs	r0, #0
 800019a:	bf18      	it	ne
 800019c:	2001      	movne	r0, #1
 800019e:	bd08      	pop	{r3, pc}

080001a0 <getchar>:
 80001a0:	b508      	push	{r3, lr}
 80001a2:	2000      	movs	r0, #0
 80001a4:	f001 f888 	bl	80012b8 <uart_rx>
 80001a8:	bd08      	pop	{r3, pc}
 80001aa:	bf00      	nop

080001ac <memcpy>:
 80001ac:	b13a      	cbz	r2, 80001be <memcpy+0x12>
 80001ae:	1e43      	subs	r3, r0, #1
 80001b0:	440a      	add	r2, r1
 80001b2:	f811 cb01 	ldrb.w	ip, [r1], #1
 80001b6:	f803 cf01 	strb.w	ip, [r3, #1]!
 80001ba:	4291      	cmp	r1, r2
 80001bc:	d1f9      	bne.n	80001b2 <memcpy+0x6>
 80001be:	4770      	bx	lr

080001c0 <memset>:
 80001c0:	b132      	cbz	r2, 80001d0 <memset+0x10>
 80001c2:	b2c9      	uxtb	r1, r1
 80001c4:	4402      	add	r2, r0
 80001c6:	4603      	mov	r3, r0
 80001c8:	f803 1b01 	strb.w	r1, [r3], #1
 80001cc:	4293      	cmp	r3, r2
 80001ce:	d1fb      	bne.n	80001c8 <memset+0x8>
 80001d0:	4770      	bx	lr
 80001d2:	bf00      	nop

080001d4 <send_serial_data>:
 80001d4:	b570      	push	{r4, r5, r6, lr}
 80001d6:	8803      	ldrh	r3, [r0, #0]
 80001d8:	b0c0      	sub	sp, #256	@ 0x100
 80001da:	b2d9      	uxtb	r1, r3
 80001dc:	227e      	movs	r2, #126	@ 0x7e
 80001de:	f1a1 057d 	sub.w	r5, r1, #125	@ 0x7d
 80001e2:	f88d 2000 	strb.w	r2, [sp]
 80001e6:	2d01      	cmp	r5, #1
 80001e8:	f8b0 2003 	ldrh.w	r2, [r0, #3]
 80001ec:	f9b0 4005 	ldrsh.w	r4, [r0, #5]
 80001f0:	d967      	bls.n	80002c2 <send_serial_data+0xee>
 80001f2:	f88d 1001 	strb.w	r1, [sp, #1]
 80001f6:	2502      	movs	r5, #2
 80001f8:	0a1e      	lsrs	r6, r3, #8
 80001fa:	f1a6 0c7d 	sub.w	ip, r6, #125	@ 0x7d
 80001fe:	f1bc 0f01 	cmp.w	ip, #1
 8000202:	f3c3 2307 	ubfx	r3, r3, #8, #8
 8000206:	f105 0101 	add.w	r1, r5, #1
 800020a:	d951      	bls.n	80002b0 <send_serial_data+0xdc>
 800020c:	f80d 3005 	strb.w	r3, [sp, r5]
 8000210:	7883      	ldrb	r3, [r0, #2]
 8000212:	f1a3 057d 	sub.w	r5, r3, #125	@ 0x7d
 8000216:	2d01      	cmp	r5, #1
 8000218:	f101 0001 	add.w	r0, r1, #1
 800021c:	d93f      	bls.n	800029e <send_serial_data+0xca>
 800021e:	f80d 3001 	strb.w	r3, [sp, r1]
 8000222:	b2d1      	uxtb	r1, r2
 8000224:	f1a1 057d 	sub.w	r5, r1, #125	@ 0x7d
 8000228:	2d01      	cmp	r5, #1
 800022a:	f100 0301 	add.w	r3, r0, #1
 800022e:	d92d      	bls.n	800028c <send_serial_data+0xb8>
 8000230:	f80d 1000 	strb.w	r1, [sp, r0]
 8000234:	f3c2 2507 	ubfx	r5, r2, #8, #8
 8000238:	0a12      	lsrs	r2, r2, #8
 800023a:	f1a2 007d 	sub.w	r0, r2, #125	@ 0x7d
 800023e:	2801      	cmp	r0, #1
 8000240:	f103 0101 	add.w	r1, r3, #1
 8000244:	d958      	bls.n	80002f8 <send_serial_data+0x124>
 8000246:	f80d 5003 	strb.w	r5, [sp, r3]
 800024a:	b2e2      	uxtb	r2, r4
 800024c:	f1a2 007d 	sub.w	r0, r2, #125	@ 0x7d
 8000250:	2801      	cmp	r0, #1
 8000252:	f101 0301 	add.w	r3, r1, #1
 8000256:	d946      	bls.n	80002e6 <send_serial_data+0x112>
 8000258:	f80d 2001 	strb.w	r2, [sp, r1]
 800025c:	f3c4 2207 	ubfx	r2, r4, #8, #8
 8000260:	f1a2 017d 	sub.w	r1, r2, #125	@ 0x7d
 8000264:	2901      	cmp	r1, #1
 8000266:	f103 0601 	add.w	r6, r3, #1
 800026a:	d933      	bls.n	80002d4 <send_serial_data+0x100>
 800026c:	f80d 2003 	strb.w	r2, [sp, r3]
 8000270:	237e      	movs	r3, #126	@ 0x7e
 8000272:	f80d 3006 	strb.w	r3, [sp, r6]
 8000276:	466c      	mov	r4, sp
 8000278:	2500      	movs	r5, #0
 800027a:	f814 0b01 	ldrb.w	r0, [r4], #1
 800027e:	3501      	adds	r5, #1
 8000280:	f7ff ff82 	bl	8000188 <putchar>
 8000284:	42ae      	cmp	r6, r5
 8000286:	daf8      	bge.n	800027a <send_serial_data+0xa6>
 8000288:	b040      	add	sp, #256	@ 0x100
 800028a:	bd70      	pop	{r4, r5, r6, pc}
 800028c:	f081 0120 	eor.w	r1, r1, #32
 8000290:	257d      	movs	r5, #125	@ 0x7d
 8000292:	f80d 5000 	strb.w	r5, [sp, r0]
 8000296:	f80d 1003 	strb.w	r1, [sp, r3]
 800029a:	1c83      	adds	r3, r0, #2
 800029c:	e7ca      	b.n	8000234 <send_serial_data+0x60>
 800029e:	f083 0320 	eor.w	r3, r3, #32
 80002a2:	257d      	movs	r5, #125	@ 0x7d
 80002a4:	f80d 5001 	strb.w	r5, [sp, r1]
 80002a8:	f80d 3000 	strb.w	r3, [sp, r0]
 80002ac:	1c88      	adds	r0, r1, #2
 80002ae:	e7b8      	b.n	8000222 <send_serial_data+0x4e>
 80002b0:	f086 0620 	eor.w	r6, r6, #32
 80002b4:	237d      	movs	r3, #125	@ 0x7d
 80002b6:	f80d 3005 	strb.w	r3, [sp, r5]
 80002ba:	f80d 6001 	strb.w	r6, [sp, r1]
 80002be:	1ca9      	adds	r1, r5, #2
 80002c0:	e7a6      	b.n	8000210 <send_serial_data+0x3c>
 80002c2:	f081 0120 	eor.w	r1, r1, #32
 80002c6:	f88d 1002 	strb.w	r1, [sp, #2]
 80002ca:	217d      	movs	r1, #125	@ 0x7d
 80002cc:	f88d 1001 	strb.w	r1, [sp, #1]
 80002d0:	2503      	movs	r5, #3
 80002d2:	e791      	b.n	80001f8 <send_serial_data+0x24>
 80002d4:	217d      	movs	r1, #125	@ 0x7d
 80002d6:	f082 0220 	eor.w	r2, r2, #32
 80002da:	f80d 1003 	strb.w	r1, [sp, r3]
 80002de:	f80d 2006 	strb.w	r2, [sp, r6]
 80002e2:	1c9e      	adds	r6, r3, #2
 80002e4:	e7c4      	b.n	8000270 <send_serial_data+0x9c>
 80002e6:	f082 0220 	eor.w	r2, r2, #32
 80002ea:	207d      	movs	r0, #125	@ 0x7d
 80002ec:	f80d 0001 	strb.w	r0, [sp, r1]
 80002f0:	f80d 2003 	strb.w	r2, [sp, r3]
 80002f4:	1c8b      	adds	r3, r1, #2
 80002f6:	e7b1      	b.n	800025c <send_serial_data+0x88>
 80002f8:	f082 0220 	eor.w	r2, r2, #32
 80002fc:	207d      	movs	r0, #125	@ 0x7d
 80002fe:	f80d 0003 	strb.w	r0, [sp, r3]
 8000302:	f80d 2001 	strb.w	r2, [sp, r1]
 8000306:	1c99      	adds	r1, r3, #2
 8000308:	e79f      	b.n	800024a <send_serial_data+0x76>
 800030a:	bf00      	nop

0800030c <taskAsyncIRQ>:
 800030c:	b530      	push	{r4, r5, lr}
 800030e:	4c10      	ldr	r4, [pc, #64]	@ (8000350 <taskAsyncIRQ+0x44>)
 8000310:	8823      	ldrh	r3, [r4, #0]
 8000312:	f64f 75ff 	movw	r5, #65535	@ 0xffff
 8000316:	b29b      	uxth	r3, r3
 8000318:	42ab      	cmp	r3, r5
 800031a:	b0c1      	sub	sp, #260	@ 0x104
 800031c:	d015      	beq.n	800034a <taskAsyncIRQ+0x3e>
 800031e:	f44f 7280 	mov.w	r2, #256	@ 0x100
 8000322:	2100      	movs	r1, #0
 8000324:	4668      	mov	r0, sp
 8000326:	f7ff ff4b 	bl	80001c0 <memset>
 800032a:	2300      	movs	r3, #0
 800032c:	8822      	ldrh	r2, [r4, #0]
 800032e:	f8ad 5000 	strh.w	r5, [sp]
 8000332:	4668      	mov	r0, sp
 8000334:	f88d 3002 	strb.w	r3, [sp, #2]
 8000338:	f8ad 2003 	strh.w	r2, [sp, #3]
 800033c:	f88d 3005 	strb.w	r3, [sp, #5]
 8000340:	f88d 3006 	strb.w	r3, [sp, #6]
 8000344:	f7ff ff46 	bl	80001d4 <send_serial_data>
 8000348:	8025      	strh	r5, [r4, #0]
 800034a:	2000      	movs	r0, #0
 800034c:	b041      	add	sp, #260	@ 0x104
 800034e:	bd30      	pop	{r4, r5, pc}
 8000350:	20000000 	.word	0x20000000

08000354 <task_add>:
 8000354:	b500      	push	{lr}
 8000356:	f04f 0e00 	mov.w	lr, #0
 800035a:	f362 0e07 	bfi	lr, r2, #0, #8
 800035e:	f362 2e0f 	bfi	lr, r2, #8, #8
 8000362:	f100 0ca0 	add.w	ip, r0, #160	@ 0xa0
 8000366:	e001      	b.n	800036c <task_add+0x18>
 8000368:	4560      	cmp	r0, ip
 800036a:	d004      	beq.n	8000376 <task_add+0x22>
 800036c:	6803      	ldr	r3, [r0, #0]
 800036e:	4602      	mov	r2, r0
 8000370:	3008      	adds	r0, #8
 8000372:	2b00      	cmp	r3, #0
 8000374:	d1f8      	bne.n	8000368 <task_add+0x14>
 8000376:	f8a2 e004 	strh.w	lr, [r2, #4]
 800037a:	6011      	str	r1, [r2, #0]
 800037c:	f85d fb04 	ldr.w	pc, [sp], #4

08000380 <task_schedule>:
 8000380:	4684      	mov	ip, r0
 8000382:	f100 01a0 	add.w	r1, r0, #160	@ 0xa0
 8000386:	4663      	mov	r3, ip
 8000388:	e002      	b.n	8000390 <task_schedule+0x10>
 800038a:	3308      	adds	r3, #8
 800038c:	4299      	cmp	r1, r3
 800038e:	d0fa      	beq.n	8000386 <task_schedule+0x6>
 8000390:	681a      	ldr	r2, [r3, #0]
 8000392:	2a00      	cmp	r2, #0
 8000394:	d0f7      	beq.n	8000386 <task_schedule+0x6>
 8000396:	7958      	ldrb	r0, [r3, #5]
 8000398:	3801      	subs	r0, #1
 800039a:	b2c0      	uxtb	r0, r0
 800039c:	7158      	strb	r0, [r3, #5]
 800039e:	2800      	cmp	r0, #0
 80003a0:	d1f3      	bne.n	800038a <task_schedule+0xa>
 80003a2:	7919      	ldrb	r1, [r3, #4]
 80003a4:	7159      	strb	r1, [r3, #5]
 80003a6:	4710      	bx	r2

080003a8 <EXTI0_IRQHandler>:
 80003a8:	b508      	push	{r3, lr}
 80003aa:	2001      	movs	r0, #1
 80003ac:	f000 faec 	bl	8000988 <EXTI_GetITStatus>
 80003b0:	b900      	cbnz	r0, 80003b4 <EXTI0_IRQHandler+0xc>
 80003b2:	bd08      	pop	{r3, pc}
 80003b4:	4b03      	ldr	r3, [pc, #12]	@ (80003c4 <EXTI0_IRQHandler+0x1c>)
 80003b6:	2210      	movs	r2, #16
 80003b8:	801a      	strh	r2, [r3, #0]
 80003ba:	2001      	movs	r0, #1
 80003bc:	e8bd 4008 	ldmia.w	sp!, {r3, lr}
 80003c0:	f000 baec 	b.w	800099c <EXTI_ClearITPendingBit>
 80003c4:	20000000 	.word	0x20000000

080003c8 <EXTI1_IRQHandler>:
 80003c8:	b508      	push	{r3, lr}
 80003ca:	2002      	movs	r0, #2
 80003cc:	f000 fadc 	bl	8000988 <EXTI_GetITStatus>
 80003d0:	b900      	cbnz	r0, 80003d4 <EXTI1_IRQHandler+0xc>
 80003d2:	bd08      	pop	{r3, pc}
 80003d4:	4b03      	ldr	r3, [pc, #12]	@ (80003e4 <EXTI1_IRQHandler+0x1c>)
 80003d6:	2211      	movs	r2, #17
 80003d8:	801a      	strh	r2, [r3, #0]
 80003da:	2002      	movs	r0, #2
 80003dc:	e8bd 4008 	ldmia.w	sp!, {r3, lr}
 80003e0:	f000 badc 	b.w	800099c <EXTI_ClearITPendingBit>
 80003e4:	20000000 	.word	0x20000000

080003e8 <EXTI2_IRQHandler>:
 80003e8:	b508      	push	{r3, lr}
 80003ea:	2004      	movs	r0, #4
 80003ec:	f000 facc 	bl	8000988 <EXTI_GetITStatus>
 80003f0:	b900      	cbnz	r0, 80003f4 <EXTI2_IRQHandler+0xc>
 80003f2:	bd08      	pop	{r3, pc}
 80003f4:	4b03      	ldr	r3, [pc, #12]	@ (8000404 <EXTI2_IRQHandler+0x1c>)
 80003f6:	2212      	movs	r2, #18
 80003f8:	801a      	strh	r2, [r3, #0]
 80003fa:	2004      	movs	r0, #4
 80003fc:	e8bd 4008 	ldmia.w	sp!, {r3, lr}
 8000400:	f000 bacc 	b.w	800099c <EXTI_ClearITPendingBit>
 8000404:	20000000 	.word	0x20000000

08000408 <EXTI3_IRQHandler>:
 8000408:	b508      	push	{r3, lr}
 800040a:	2008      	movs	r0, #8
 800040c:	f000 fabc 	bl	8000988 <EXTI_GetITStatus>
 8000410:	b900      	cbnz	r0, 8000414 <EXTI3_IRQHandler+0xc>
 8000412:	bd08      	pop	{r3, pc}
 8000414:	4b03      	ldr	r3, [pc, #12]	@ (8000424 <EXTI3_IRQHandler+0x1c>)
 8000416:	2213      	movs	r2, #19
 8000418:	801a      	strh	r2, [r3, #0]
 800041a:	2008      	movs	r0, #8
 800041c:	e8bd 4008 	ldmia.w	sp!, {r3, lr}
 8000420:	f000 babc 	b.w	800099c <EXTI_ClearITPendingBit>
 8000424:	20000000 	.word	0x20000000

08000428 <configure_PA0_irq>:
 8000428:	b510      	push	{r4, lr}
 800042a:	2802      	cmp	r0, #2
 800042c:	b084      	sub	sp, #16
 800042e:	f04f 0400 	mov.w	r4, #0
 8000432:	d802      	bhi.n	800043a <configure_PA0_irq+0x12>
 8000434:	0080      	lsls	r0, r0, #2
 8000436:	3008      	adds	r0, #8
 8000438:	b2c4      	uxtb	r4, r0
 800043a:	2101      	movs	r1, #1
 800043c:	4608      	mov	r0, r1
 800043e:	f000 fb63 	bl	8000b08 <RCC_AHB1PeriphClockCmd>
 8000442:	2101      	movs	r1, #1
 8000444:	f44f 4080 	mov.w	r0, #16384	@ 0x4000
 8000448:	f000 fb82 	bl	8000b50 <RCC_APB2PeriphClockCmd>
 800044c:	2100      	movs	r1, #0
 800044e:	4608      	mov	r0, r1
 8000450:	f000 fb96 	bl	8000b80 <SYSCFG_EXTILineConfig>
 8000454:	2301      	movs	r3, #1
 8000456:	2200      	movs	r2, #0
 8000458:	a802      	add	r0, sp, #8
 800045a:	9302      	str	r3, [sp, #8]
 800045c:	f88d 200c 	strb.w	r2, [sp, #12]
 8000460:	f88d 300e 	strb.w	r3, [sp, #14]
 8000464:	f88d 400d 	strb.w	r4, [sp, #13]
 8000468:	f000 fa56 	bl	8000918 <EXTI_Init>
 800046c:	4b03      	ldr	r3, [pc, #12]	@ (800047c <configure_PA0_irq+0x54>)
 800046e:	9301      	str	r3, [sp, #4]
 8000470:	a801      	add	r0, sp, #4
 8000472:	f000 f9ab 	bl	80007cc <NVIC_Init>
 8000476:	b004      	add	sp, #16
 8000478:	bd10      	pop	{r4, pc}
 800047a:	bf00      	nop
 800047c:	01010106 	.word	0x01010106

08000480 <configure_PA1_irq>:
 8000480:	b510      	push	{r4, lr}
 8000482:	2802      	cmp	r0, #2
 8000484:	b084      	sub	sp, #16
 8000486:	f04f 0400 	mov.w	r4, #0
 800048a:	d802      	bhi.n	8000492 <configure_PA1_irq+0x12>
 800048c:	0080      	lsls	r0, r0, #2
 800048e:	3008      	adds	r0, #8
 8000490:	b2c4      	uxtb	r4, r0
 8000492:	2101      	movs	r1, #1
 8000494:	4608      	mov	r0, r1
 8000496:	f000 fb37 	bl	8000b08 <RCC_AHB1PeriphClockCmd>
 800049a:	2101      	movs	r1, #1
 800049c:	f44f 4080 	mov.w	r0, #16384	@ 0x4000
 80004a0:	f000 fb56 	bl	8000b50 <RCC_APB2PeriphClockCmd>
 80004a4:	2101      	movs	r1, #1
 80004a6:	2000      	movs	r0, #0
 80004a8:	f000 fb6a 	bl	8000b80 <SYSCFG_EXTILineConfig>
 80004ac:	2102      	movs	r1, #2
 80004ae:	2200      	movs	r2, #0
 80004b0:	a802      	add	r0, sp, #8
 80004b2:	2301      	movs	r3, #1
 80004b4:	9102      	str	r1, [sp, #8]
 80004b6:	f88d 200c 	strb.w	r2, [sp, #12]
 80004ba:	f88d 300e 	strb.w	r3, [sp, #14]
 80004be:	f88d 400d 	strb.w	r4, [sp, #13]
 80004c2:	f000 fa29 	bl	8000918 <EXTI_Init>
 80004c6:	4b03      	ldr	r3, [pc, #12]	@ (80004d4 <configure_PA1_irq+0x54>)
 80004c8:	9301      	str	r3, [sp, #4]
 80004ca:	a801      	add	r0, sp, #4
 80004cc:	f000 f97e 	bl	80007cc <NVIC_Init>
 80004d0:	b004      	add	sp, #16
 80004d2:	bd10      	pop	{r4, pc}
 80004d4:	01010107 	.word	0x01010107

080004d8 <configure_PA2_irq>:
 80004d8:	b510      	push	{r4, lr}
 80004da:	2802      	cmp	r0, #2
 80004dc:	b084      	sub	sp, #16
 80004de:	f04f 0400 	mov.w	r4, #0
 80004e2:	d802      	bhi.n	80004ea <configure_PA2_irq+0x12>
 80004e4:	0080      	lsls	r0, r0, #2
 80004e6:	3008      	adds	r0, #8
 80004e8:	b2c4      	uxtb	r4, r0
 80004ea:	2101      	movs	r1, #1
 80004ec:	4608      	mov	r0, r1
 80004ee:	f000 fb0b 	bl	8000b08 <RCC_AHB1PeriphClockCmd>
 80004f2:	2101      	movs	r1, #1
 80004f4:	f44f 4080 	mov.w	r0, #16384	@ 0x4000
 80004f8:	f000 fb2a 	bl	8000b50 <RCC_APB2PeriphClockCmd>
 80004fc:	2102      	movs	r1, #2
 80004fe:	2000      	movs	r0, #0
 8000500:	f000 fb3e 	bl	8000b80 <SYSCFG_EXTILineConfig>
 8000504:	2104      	movs	r1, #4
 8000506:	2200      	movs	r2, #0
 8000508:	a802      	add	r0, sp, #8
 800050a:	2301      	movs	r3, #1
 800050c:	9102      	str	r1, [sp, #8]
 800050e:	f88d 200c 	strb.w	r2, [sp, #12]
 8000512:	f88d 300e 	strb.w	r3, [sp, #14]
 8000516:	f88d 400d 	strb.w	r4, [sp, #13]
 800051a:	f000 f9fd 	bl	8000918 <EXTI_Init>
 800051e:	4b03      	ldr	r3, [pc, #12]	@ (800052c <configure_PA2_irq+0x54>)
 8000520:	9301      	str	r3, [sp, #4]
 8000522:	a801      	add	r0, sp, #4
 8000524:	f000 f952 	bl	80007cc <NVIC_Init>
 8000528:	b004      	add	sp, #16
 800052a:	bd10      	pop	{r4, pc}
 800052c:	01010108 	.word	0x01010108

08000530 <configure_PA3_irq>:
 8000530:	b510      	push	{r4, lr}
 8000532:	2802      	cmp	r0, #2
 8000534:	b084      	sub	sp, #16
 8000536:	f04f 0400 	mov.w	r4, #0
 800053a:	d802      	bhi.n	8000542 <configure_PA3_irq+0x12>
 800053c:	0080      	lsls	r0, r0, #2
 800053e:	3008      	adds	r0, #8
 8000540:	b2c4      	uxtb	r4, r0
 8000542:	2101      	movs	r1, #1
 8000544:	4608      	mov	r0, r1
 8000546:	f000 fadf 	bl	8000b08 <RCC_AHB1PeriphClockCmd>
 800054a:	2101      	movs	r1, #1
 800054c:	f44f 4080 	mov.w	r0, #16384	@ 0x4000
 8000550:	f000 fafe 	bl	8000b50 <RCC_APB2PeriphClockCmd>
 8000554:	2103      	movs	r1, #3
 8000556:	2000      	movs	r0, #0
 8000558:	f000 fb12 	bl	8000b80 <SYSCFG_EXTILineConfig>
 800055c:	2108      	movs	r1, #8
 800055e:	2200      	movs	r2, #0
 8000560:	a802      	add	r0, sp, #8
 8000562:	2301      	movs	r3, #1
 8000564:	9102      	str	r1, [sp, #8]
 8000566:	f88d 200c 	strb.w	r2, [sp, #12]
 800056a:	f88d 300e 	strb.w	r3, [sp, #14]
 800056e:	f88d 400d 	strb.w	r4, [sp, #13]
 8000572:	f000 f9d1 	bl	8000918 <EXTI_Init>
 8000576:	4b03      	ldr	r3, [pc, #12]	@ (8000584 <configure_PA3_irq+0x54>)
 8000578:	9301      	str	r3, [sp, #4]
 800057a:	a801      	add	r0, sp, #4
 800057c:	f000 f926 	bl	80007cc <NVIC_Init>
 8000580:	b004      	add	sp, #16
 8000582:	bd10      	pop	{r4, pc}
 8000584:	01010109 	.word	0x01010109

08000588 <configure_gpio_irq>:
 8000588:	f5a0 5388 	sub.w	r3, r0, #4352	@ 0x1100
 800058c:	3b01      	subs	r3, #1
 800058e:	4608      	mov	r0, r1
 8000590:	2b03      	cmp	r3, #3
 8000592:	d80b      	bhi.n	80005ac <configure_gpio_irq+0x24>
 8000594:	e8df f003 	tbb	[pc, r3]
 8000598:	02040608 	.word	0x02040608
 800059c:	f7ff bfc8 	b.w	8000530 <configure_PA3_irq>
 80005a0:	f7ff bf9a 	b.w	80004d8 <configure_PA2_irq>
 80005a4:	f7ff bf6c 	b.w	8000480 <configure_PA1_irq>
 80005a8:	f7ff bf3e 	b.w	8000428 <configure_PA0_irq>
 80005ac:	4770      	bx	lr
 80005ae:	bf00      	nop

080005b0 <process_command>:
 80005b0:	b510      	push	{r4, lr}
 80005b2:	7883      	ldrb	r3, [r0, #2]
 80005b4:	2b01      	cmp	r3, #1
 80005b6:	4604      	mov	r4, r0
 80005b8:	d007      	beq.n	80005ca <process_command+0x1a>
 80005ba:	2b02      	cmp	r3, #2
 80005bc:	d01b      	beq.n	80005f6 <process_command+0x46>
 80005be:	b17b      	cbz	r3, 80005e0 <process_command+0x30>
 80005c0:	f04f 33ff 	mov.w	r3, #4294967295	@ 0xffffffff
 80005c4:	7163      	strb	r3, [r4, #5]
 80005c6:	71a3      	strb	r3, [r4, #6]
 80005c8:	bd10      	pop	{r4, pc}
 80005ca:	f8b0 3003 	ldrh.w	r3, [r0, #3]
 80005ce:	f5a3 5380 	sub.w	r3, r3, #4096	@ 0x1000
 80005d2:	3b01      	subs	r3, #1
 80005d4:	2b03      	cmp	r3, #3
 80005d6:	d8f3      	bhi.n	80005c0 <process_command+0x10>
 80005d8:	e8df f003 	tbb	[pc, r3]
 80005dc:	333e4951 	.word	0x333e4951
 80005e0:	f8b0 3003 	ldrh.w	r3, [r0, #3]
 80005e4:	f5a3 5380 	sub.w	r3, r3, #4096	@ 0x1000
 80005e8:	3b01      	subs	r3, #1
 80005ea:	2b03      	cmp	r3, #3
 80005ec:	d84f      	bhi.n	800068e <process_command+0xde>
 80005ee:	e8df f003 	tbb	[pc, r3]
 80005f2:	1c22      	.short	0x1c22
 80005f4:	0a16      	.short	0x0a16
 80005f6:	f9b0 1005 	ldrsh.w	r1, [r0, #5]
 80005fa:	f8b0 0003 	ldrh.w	r0, [r0, #3]
 80005fe:	e8bd 4010 	ldmia.w	sp!, {r4, lr}
 8000602:	f7ff bfc1 	b.w	8000588 <configure_gpio_irq>
 8000606:	4823      	ldr	r0, [pc, #140]	@ (8000694 <process_command+0xe4>)
 8000608:	2108      	movs	r1, #8
 800060a:	f000 fa17 	bl	8000a3c <GPIO_ReadInputDataBit>
 800060e:	b200      	sxth	r0, r0
 8000610:	f8a4 0005 	strh.w	r0, [r4, #5]
 8000614:	4620      	mov	r0, r4
 8000616:	e8bd 4010 	ldmia.w	sp!, {r4, lr}
 800061a:	f7ff bddb 	b.w	80001d4 <send_serial_data>
 800061e:	481d      	ldr	r0, [pc, #116]	@ (8000694 <process_command+0xe4>)
 8000620:	2104      	movs	r1, #4
 8000622:	f000 fa0b 	bl	8000a3c <GPIO_ReadInputDataBit>
 8000626:	b200      	sxth	r0, r0
 8000628:	e7f2      	b.n	8000610 <process_command+0x60>
 800062a:	481a      	ldr	r0, [pc, #104]	@ (8000694 <process_command+0xe4>)
 800062c:	2102      	movs	r1, #2
 800062e:	f000 fa05 	bl	8000a3c <GPIO_ReadInputDataBit>
 8000632:	b200      	sxth	r0, r0
 8000634:	e7ec      	b.n	8000610 <process_command+0x60>
 8000636:	4817      	ldr	r0, [pc, #92]	@ (8000694 <process_command+0xe4>)
 8000638:	2101      	movs	r1, #1
 800063a:	f000 f9ff 	bl	8000a3c <GPIO_ReadInputDataBit>
 800063e:	b200      	sxth	r0, r0
 8000640:	e7e6      	b.n	8000610 <process_command+0x60>
 8000642:	f9b0 3005 	ldrsh.w	r3, [r0, #5]
 8000646:	4814      	ldr	r0, [pc, #80]	@ (8000698 <process_command+0xe8>)
 8000648:	2b01      	cmp	r3, #1
 800064a:	f44f 7100 	mov.w	r1, #512	@ 0x200
 800064e:	d00a      	beq.n	8000666 <process_command+0xb6>
 8000650:	e8bd 4010 	ldmia.w	sp!, {r4, lr}
 8000654:	f000 b9fa 	b.w	8000a4c <GPIO_ResetBits>
 8000658:	f9b0 3005 	ldrsh.w	r3, [r0, #5]
 800065c:	480e      	ldr	r0, [pc, #56]	@ (8000698 <process_command+0xe8>)
 800065e:	2b01      	cmp	r3, #1
 8000660:	f44f 7180 	mov.w	r1, #256	@ 0x100
 8000664:	d1f4      	bne.n	8000650 <process_command+0xa0>
 8000666:	e8bd 4010 	ldmia.w	sp!, {r4, lr}
 800066a:	f000 b9ed 	b.w	8000a48 <GPIO_SetBits>
 800066e:	f9b0 3005 	ldrsh.w	r3, [r0, #5]
 8000672:	4809      	ldr	r0, [pc, #36]	@ (8000698 <process_command+0xe8>)
 8000674:	2b01      	cmp	r3, #1
 8000676:	f04f 0180 	mov.w	r1, #128	@ 0x80
 800067a:	d1e9      	bne.n	8000650 <process_command+0xa0>
 800067c:	e7f3      	b.n	8000666 <process_command+0xb6>
 800067e:	f9b0 3005 	ldrsh.w	r3, [r0, #5]
 8000682:	4805      	ldr	r0, [pc, #20]	@ (8000698 <process_command+0xe8>)
 8000684:	2b01      	cmp	r3, #1
 8000686:	f04f 0140 	mov.w	r1, #64	@ 0x40
 800068a:	d1e1      	bne.n	8000650 <process_command+0xa0>
 800068c:	e7eb      	b.n	8000666 <process_command+0xb6>
 800068e:	f04f 30ff 	mov.w	r0, #4294967295	@ 0xffffffff
 8000692:	e7bd      	b.n	8000610 <process_command+0x60>
 8000694:	40020000 	.word	0x40020000
 8000698:	40020400 	.word	0x40020400

0800069c <taskProcessCommand.part.0>:
 800069c:	b5f0      	push	{r4, r5, r6, r7, lr}
 800069e:	b0c3      	sub	sp, #268	@ 0x10c
 80006a0:	2600      	movs	r6, #0
 80006a2:	f44f 7280 	mov.w	r2, #256	@ 0x100
 80006a6:	2100      	movs	r1, #0
 80006a8:	a802      	add	r0, sp, #8
 80006aa:	f7ff fd89 	bl	80001c0 <memset>
 80006ae:	ad02      	add	r5, sp, #8
 80006b0:	4637      	mov	r7, r6
 80006b2:	4634      	mov	r4, r6
 80006b4:	e00c      	b.n	80006d0 <taskProcessCommand.part.0+0x34>
 80006b6:	b10f      	cbz	r7, 80006bc <taskProcessCommand.part.0+0x20>
 80006b8:	f080 0020 	eor.w	r0, r0, #32
 80006bc:	f80d 0006 	strb.w	r0, [sp, r6]
 80006c0:	3601      	adds	r6, #1
 80006c2:	2e06      	cmp	r6, #6
 80006c4:	f04f 0700 	mov.w	r7, #0
 80006c8:	dc11      	bgt.n	80006ee <taskProcessCommand.part.0+0x52>
 80006ca:	f5b4 7f80 	cmp.w	r4, #256	@ 0x100
 80006ce:	d012      	beq.n	80006f6 <taskProcessCommand.part.0+0x5a>
 80006d0:	f7ff fd66 	bl	80001a0 <getchar>
 80006d4:	b2c0      	uxtb	r0, r0
 80006d6:	287e      	cmp	r0, #126	@ 0x7e
 80006d8:	f805 0b01 	strb.w	r0, [r5], #1
 80006dc:	f104 0401 	add.w	r4, r4, #1
 80006e0:	d0f3      	beq.n	80006ca <taskProcessCommand.part.0+0x2e>
 80006e2:	287d      	cmp	r0, #125	@ 0x7d
 80006e4:	d1e7      	bne.n	80006b6 <taskProcessCommand.part.0+0x1a>
 80006e6:	2e06      	cmp	r6, #6
 80006e8:	f04f 0701 	mov.w	r7, #1
 80006ec:	dded      	ble.n	80006ca <taskProcessCommand.part.0+0x2e>
 80006ee:	f7ff fd57 	bl	80001a0 <getchar>
 80006f2:	ab02      	add	r3, sp, #8
 80006f4:	5518      	strb	r0, [r3, r4]
 80006f6:	2207      	movs	r2, #7
 80006f8:	4669      	mov	r1, sp
 80006fa:	a802      	add	r0, sp, #8
 80006fc:	f7ff fd56 	bl	80001ac <memcpy>
 8000700:	a802      	add	r0, sp, #8
 8000702:	f7ff ff55 	bl	80005b0 <process_command>
 8000706:	b043      	add	sp, #268	@ 0x10c
 8000708:	bdf0      	pop	{r4, r5, r6, r7, pc}
 800070a:	bf00      	nop

0800070c <taskProcessCommand>:
 800070c:	b508      	push	{r3, lr}
 800070e:	f7ff fd3f 	bl	8000190 <kbhit>
 8000712:	b908      	cbnz	r0, 8000718 <taskProcessCommand+0xc>
 8000714:	2000      	movs	r0, #0
 8000716:	bd08      	pop	{r3, pc}
 8000718:	f7ff ffc0 	bl	800069c <taskProcessCommand.part.0>
 800071c:	2000      	movs	r0, #0
 800071e:	bd08      	pop	{r3, pc}

08000720 <configure_output_pins>:
 8000720:	b500      	push	{lr}
 8000722:	2101      	movs	r1, #1
 8000724:	b083      	sub	sp, #12
 8000726:	2002      	movs	r0, #2
 8000728:	f000 f9ee 	bl	8000b08 <RCC_AHB1PeriphClockCmd>
 800072c:	f44f 7270 	mov.w	r2, #960	@ 0x3c0
 8000730:	2301      	movs	r3, #1
 8000732:	4804      	ldr	r0, [pc, #16]	@ (8000744 <configure_output_pins+0x24>)
 8000734:	4669      	mov	r1, sp
 8000736:	e9cd 2300 	strd	r2, r3, [sp]
 800073a:	f000 f935 	bl	80009a8 <GPIO_Init>
 800073e:	b003      	add	sp, #12
 8000740:	f85d fb04 	ldr.w	pc, [sp], #4
 8000744:	40020400 	.word	0x40020400

08000748 <configure_input_pins>:
 8000748:	b500      	push	{lr}
 800074a:	2101      	movs	r1, #1
 800074c:	b083      	sub	sp, #12
 800074e:	4608      	mov	r0, r1
 8000750:	f000 f9da 	bl	8000b08 <RCC_AHB1PeriphClockCmd>
 8000754:	220f      	movs	r2, #15
 8000756:	f04f 7300 	mov.w	r3, #33554432	@ 0x2000000
 800075a:	4804      	ldr	r0, [pc, #16]	@ (800076c <configure_input_pins+0x24>)
 800075c:	4669      	mov	r1, sp
 800075e:	e9cd 2300 	strd	r2, r3, [sp]
 8000762:	f000 f921 	bl	80009a8 <GPIO_Init>
 8000766:	b003      	add	sp, #12
 8000768:	f85d fb04 	ldr.w	pc, [sp], #4
 800076c:	40020000 	.word	0x40020000

08000770 <main>:
 8000770:	b500      	push	{lr}
 8000772:	b0a9      	sub	sp, #164	@ 0xa4
 8000774:	22a0      	movs	r2, #160	@ 0xa0
 8000776:	2100      	movs	r1, #0
 8000778:	4668      	mov	r0, sp
 800077a:	f7ff fd21 	bl	80001c0 <memset>
 800077e:	f7ff ffcf 	bl	8000720 <configure_output_pins>
 8000782:	f7ff ffe1 	bl	8000748 <configure_input_pins>
 8000786:	2200      	movs	r2, #0
 8000788:	f44f 31e1 	mov.w	r1, #115200	@ 0x1c200
 800078c:	4610      	mov	r0, r2
 800078e:	f000 fc07 	bl	8000fa0 <uart_init>
 8000792:	4907      	ldr	r1, [pc, #28]	@ (80007b0 <main+0x40>)
 8000794:	220a      	movs	r2, #10
 8000796:	4668      	mov	r0, sp
 8000798:	f7ff fddc 	bl	8000354 <task_add>
 800079c:	4905      	ldr	r1, [pc, #20]	@ (80007b4 <main+0x44>)
 800079e:	2214      	movs	r2, #20
 80007a0:	4668      	mov	r0, sp
 80007a2:	f7ff fdd7 	bl	8000354 <task_add>
 80007a6:	4668      	mov	r0, sp
 80007a8:	f7ff fdea 	bl	8000380 <task_schedule>
 80007ac:	e7fb      	b.n	80007a6 <main+0x36>
 80007ae:	bf00      	nop
 80007b0:	0800030d 	.word	0x0800030d
 80007b4:	0800070d 	.word	0x0800070d

080007b8 <NVIC_PriorityGroupConfig>:
 80007b8:	4b03      	ldr	r3, [pc, #12]	@ (80007c8 <NVIC_PriorityGroupConfig+0x10>)
 80007ba:	f040 60bf 	orr.w	r0, r0, #100139008	@ 0x5f80000
 80007be:	f440 3000 	orr.w	r0, r0, #131072	@ 0x20000
 80007c2:	60d8      	str	r0, [r3, #12]
 80007c4:	4770      	bx	lr
 80007c6:	bf00      	nop
 80007c8:	e000ed00 	.word	0xe000ed00

080007cc <NVIC_Init>:
 80007cc:	b510      	push	{r4, lr}
 80007ce:	7802      	ldrb	r2, [r0, #0]
 80007d0:	78c3      	ldrb	r3, [r0, #3]
 80007d2:	2101      	movs	r1, #1
 80007d4:	f002 041f 	and.w	r4, r2, #31
 80007d8:	ea4f 1e52 	mov.w	lr, r2, lsr #5
 80007dc:	40a1      	lsls	r1, r4
 80007de:	b1db      	cbz	r3, 8000818 <NVIC_Init+0x4c>
 80007e0:	4b10      	ldr	r3, [pc, #64]	@ (8000824 <NVIC_Init+0x58>)
 80007e2:	7844      	ldrb	r4, [r0, #1]
 80007e4:	68db      	ldr	r3, [r3, #12]
 80007e6:	ea6f 0c03 	mvn.w	ip, r3
 80007ea:	f3cc 2c02 	ubfx	ip, ip, #8, #3
 80007ee:	7883      	ldrb	r3, [r0, #2]
 80007f0:	f1cc 0004 	rsb	r0, ip, #4
 80007f4:	b2c0      	uxtb	r0, r0
 80007f6:	fa04 f000 	lsl.w	r0, r4, r0
 80007fa:	240f      	movs	r4, #15
 80007fc:	fa44 f40c 	asr.w	r4, r4, ip
 8000800:	b2c0      	uxtb	r0, r0
 8000802:	4023      	ands	r3, r4
 8000804:	4303      	orrs	r3, r0
 8000806:	4808      	ldr	r0, [pc, #32]	@ (8000828 <NVIC_Init+0x5c>)
 8000808:	011b      	lsls	r3, r3, #4
 800080a:	4402      	add	r2, r0
 800080c:	b2db      	uxtb	r3, r3
 800080e:	f882 3300 	strb.w	r3, [r2, #768]	@ 0x300
 8000812:	f840 102e 	str.w	r1, [r0, lr, lsl #2]
 8000816:	bd10      	pop	{r4, pc}
 8000818:	4b03      	ldr	r3, [pc, #12]	@ (8000828 <NVIC_Init+0x5c>)
 800081a:	f10e 0e20 	add.w	lr, lr, #32
 800081e:	f843 102e 	str.w	r1, [r3, lr, lsl #2]
 8000822:	bd10      	pop	{r4, pc}
 8000824:	e000ed00 	.word	0xe000ed00
 8000828:	e000e100 	.word	0xe000e100

0800082c <Dummy_Handler>:
 800082c:	4770      	bx	lr
 800082e:	bf00      	nop

08000830 <SysTick_Handler>:
 8000830:	b410      	push	{r4}
 8000832:	4c05      	ldr	r4, [pc, #20]	@ (8000848 <SysTick_Handler+0x18>)
 8000834:	e9d4 2300 	ldrd	r2, r3, [r4]
 8000838:	1c50      	adds	r0, r2, #1
 800083a:	f143 0100 	adc.w	r1, r3, #0
 800083e:	e9c4 0100 	strd	r0, r1, [r4]
 8000842:	f85d 4b04 	ldr.w	r4, [sp], #4
 8000846:	4770      	bx	lr
 8000848:	20000138 	.word	0x20000138

0800084c <Reset_Handler>:
 800084c:	b508      	push	{r3, lr}
 800084e:	4a1d      	ldr	r2, [pc, #116]	@ (80008c4 <Reset_Handler+0x78>)
 8000850:	4b1d      	ldr	r3, [pc, #116]	@ (80008c8 <Reset_Handler+0x7c>)
 8000852:	4293      	cmp	r3, r2
 8000854:	d20c      	bcs.n	8000870 <Reset_Handler+0x24>
 8000856:	3a01      	subs	r2, #1
 8000858:	1ad2      	subs	r2, r2, r3
 800085a:	f022 0203 	bic.w	r2, r2, #3
 800085e:	3204      	adds	r2, #4
 8000860:	491a      	ldr	r1, [pc, #104]	@ (80008cc <Reset_Handler+0x80>)
 8000862:	441a      	add	r2, r3
 8000864:	f851 0b04 	ldr.w	r0, [r1], #4
 8000868:	f843 0b04 	str.w	r0, [r3], #4
 800086c:	4293      	cmp	r3, r2
 800086e:	d1f9      	bne.n	8000864 <Reset_Handler+0x18>
 8000870:	4b17      	ldr	r3, [pc, #92]	@ (80008d0 <Reset_Handler+0x84>)
 8000872:	4a18      	ldr	r2, [pc, #96]	@ (80008d4 <Reset_Handler+0x88>)
 8000874:	4293      	cmp	r3, r2
 8000876:	d20a      	bcs.n	800088e <Reset_Handler+0x42>
 8000878:	3a01      	subs	r2, #1
 800087a:	1ad2      	subs	r2, r2, r3
 800087c:	f022 0203 	bic.w	r2, r2, #3
 8000880:	3204      	adds	r2, #4
 8000882:	441a      	add	r2, r3
 8000884:	2100      	movs	r1, #0
 8000886:	f843 1b04 	str.w	r1, [r3], #4
 800088a:	4293      	cmp	r3, r2
 800088c:	d1fb      	bne.n	8000886 <Reset_Handler+0x3a>
 800088e:	f000 fa3f 	bl	8000d10 <SystemInit>
 8000892:	f000 fab9 	bl	8000e08 <SystemCoreClockUpdate>
 8000896:	4b10      	ldr	r3, [pc, #64]	@ (80008d8 <Reset_Handler+0x8c>)
 8000898:	4910      	ldr	r1, [pc, #64]	@ (80008dc <Reset_Handler+0x90>)
 800089a:	681b      	ldr	r3, [r3, #0]
 800089c:	4810      	ldr	r0, [pc, #64]	@ (80008e0 <Reset_Handler+0x94>)
 800089e:	fba1 1303 	umull	r1, r3, r1, r3
 80008a2:	f04f 22e0 	mov.w	r2, #3758153728	@ 0xe000e000
 80008a6:	099b      	lsrs	r3, r3, #6
 80008a8:	3b01      	subs	r3, #1
 80008aa:	6153      	str	r3, [r2, #20]
 80008ac:	f04f 0cf0 	mov.w	ip, #240	@ 0xf0
 80008b0:	2100      	movs	r1, #0
 80008b2:	2307      	movs	r3, #7
 80008b4:	f880 c023 	strb.w	ip, [r0, #35]	@ 0x23
 80008b8:	6191      	str	r1, [r2, #24]
 80008ba:	6113      	str	r3, [r2, #16]
 80008bc:	f7ff ff58 	bl	8000770 <main>
 80008c0:	e7fe      	b.n	80008c0 <Reset_Handler+0x74>
 80008c2:	bf00      	nop
 80008c4:	20000138 	.word	0x20000138
 80008c8:	20000000 	.word	0x20000000
 80008cc:	08003268 	.word	0x08003268
 80008d0:	20000138 	.word	0x20000138
 80008d4:	20001594 	.word	0x20001594
 80008d8:	20000024 	.word	0x20000024
 80008dc:	10624dd3 	.word	0x10624dd3
 80008e0:	e000ed00 	.word	0xe000ed00

080008e4 <delay_ms>:
 80008e4:	4908      	ldr	r1, [pc, #32]	@ (8000908 <delay_ms+0x24>)
 80008e6:	e92d 0830 	stmdb	sp!, {r4, r5, fp}
 80008ea:	e9d1 4500 	ldrd	r4, r5, [r1]
 80008ee:	e9d1 bc00 	ldrd	fp, ip, [r1]
 80008f2:	ebbb 0204 	subs.w	r2, fp, r4
 80008f6:	eb6c 0305 	sbc.w	r3, ip, r5
 80008fa:	4282      	cmp	r2, r0
 80008fc:	f173 0300 	sbcs.w	r3, r3, #0
 8000900:	d3f5      	bcc.n	80008ee <delay_ms+0xa>
 8000902:	e8bd 0830 	ldmia.w	sp!, {r4, r5, fp}
 8000906:	4770      	bx	lr
 8000908:	20000138 	.word	0x20000138

0800090c <_di>:
 800090c:	b672      	cpsid	i
 800090e:	4770      	bx	lr

08000910 <_ei>:
 8000910:	b662      	cpsie	i
 8000912:	f3bf 8f6f 	isb	sy
 8000916:	4770      	bx	lr

08000918 <EXTI_Init>:
 8000918:	7903      	ldrb	r3, [r0, #4]
 800091a:	7982      	ldrb	r2, [r0, #6]
 800091c:	b430      	push	{r4, r5}
 800091e:	6804      	ldr	r4, [r0, #0]
 8000920:	f103 4380 	add.w	r3, r3, #1073741824	@ 0x40000000
 8000924:	f503 339e 	add.w	r3, r3, #80896	@ 0x13c00
 8000928:	43e1      	mvns	r1, r4
 800092a:	b1f2      	cbz	r2, 800096a <EXTI_Init+0x52>
 800092c:	4a15      	ldr	r2, [pc, #84]	@ (8000984 <EXTI_Init+0x6c>)
 800092e:	6815      	ldr	r5, [r2, #0]
 8000930:	400d      	ands	r5, r1
 8000932:	6015      	str	r5, [r2, #0]
 8000934:	6855      	ldr	r5, [r2, #4]
 8000936:	4029      	ands	r1, r5
 8000938:	6051      	str	r1, [r2, #4]
 800093a:	6819      	ldr	r1, [r3, #0]
 800093c:	4321      	orrs	r1, r4
 800093e:	6019      	str	r1, [r3, #0]
 8000940:	6891      	ldr	r1, [r2, #8]
 8000942:	6803      	ldr	r3, [r0, #0]
 8000944:	ea21 0103 	bic.w	r1, r1, r3
 8000948:	6091      	str	r1, [r2, #8]
 800094a:	68d1      	ldr	r1, [r2, #12]
 800094c:	ea21 0103 	bic.w	r1, r1, r3
 8000950:	60d1      	str	r1, [r2, #12]
 8000952:	7941      	ldrb	r1, [r0, #5]
 8000954:	2910      	cmp	r1, #16
 8000956:	d00d      	beq.n	8000974 <EXTI_Init+0x5c>
 8000958:	f101 4280 	add.w	r2, r1, #1073741824	@ 0x40000000
 800095c:	f502 329e 	add.w	r2, r2, #80896	@ 0x13c00
 8000960:	bc30      	pop	{r4, r5}
 8000962:	6811      	ldr	r1, [r2, #0]
 8000964:	430b      	orrs	r3, r1
 8000966:	6013      	str	r3, [r2, #0]
 8000968:	4770      	bx	lr
 800096a:	681a      	ldr	r2, [r3, #0]
 800096c:	400a      	ands	r2, r1
 800096e:	bc30      	pop	{r4, r5}
 8000970:	601a      	str	r2, [r3, #0]
 8000972:	4770      	bx	lr
 8000974:	6891      	ldr	r1, [r2, #8]
 8000976:	4319      	orrs	r1, r3
 8000978:	6091      	str	r1, [r2, #8]
 800097a:	68d1      	ldr	r1, [r2, #12]
 800097c:	430b      	orrs	r3, r1
 800097e:	bc30      	pop	{r4, r5}
 8000980:	60d3      	str	r3, [r2, #12]
 8000982:	4770      	bx	lr
 8000984:	40013c00 	.word	0x40013c00

08000988 <EXTI_GetITStatus>:
 8000988:	4b03      	ldr	r3, [pc, #12]	@ (8000998 <EXTI_GetITStatus+0x10>)
 800098a:	695b      	ldr	r3, [r3, #20]
 800098c:	4218      	tst	r0, r3
 800098e:	bf14      	ite	ne
 8000990:	2001      	movne	r0, #1
 8000992:	2000      	moveq	r0, #0
 8000994:	4770      	bx	lr
 8000996:	bf00      	nop
 8000998:	40013c00 	.word	0x40013c00

0800099c <EXTI_ClearITPendingBit>:
 800099c:	4b01      	ldr	r3, [pc, #4]	@ (80009a4 <EXTI_ClearITPendingBit+0x8>)
 800099e:	6158      	str	r0, [r3, #20]
 80009a0:	4770      	bx	lr
 80009a2:	bf00      	nop
 80009a4:	40013c00 	.word	0x40013c00

080009a8 <GPIO_Init>:
 80009a8:	2200      	movs	r2, #0
 80009aa:	e92d 47f0 	stmdb	sp!, {r4, r5, r6, r7, r8, r9, sl, lr}
 80009ae:	4613      	mov	r3, r2
 80009b0:	680d      	ldr	r5, [r1, #0]
 80009b2:	f04f 0e01 	mov.w	lr, #1
 80009b6:	2603      	movs	r6, #3
 80009b8:	e004      	b.n	80009c4 <GPIO_Init+0x1c>
 80009ba:	3301      	adds	r3, #1
 80009bc:	2b10      	cmp	r3, #16
 80009be:	f102 0202 	add.w	r2, r2, #2
 80009c2:	d039      	beq.n	8000a38 <GPIO_Init+0x90>
 80009c4:	fa0e fc03 	lsl.w	ip, lr, r3
 80009c8:	ea3c 0405 	bics.w	r4, ip, r5
 80009cc:	d1f5      	bne.n	80009ba <GPIO_Init+0x12>
 80009ce:	6807      	ldr	r7, [r0, #0]
 80009d0:	fa06 f402 	lsl.w	r4, r6, r2
 80009d4:	ea27 0704 	bic.w	r7, r7, r4
 80009d8:	6007      	str	r7, [r0, #0]
 80009da:	790f      	ldrb	r7, [r1, #4]
 80009dc:	f8d0 a000 	ldr.w	sl, [r0]
 80009e0:	fa07 f902 	lsl.w	r9, r7, r2
 80009e4:	3f01      	subs	r7, #1
 80009e6:	ea49 090a 	orr.w	r9, r9, sl
 80009ea:	2f01      	cmp	r7, #1
 80009ec:	46a0      	mov	r8, r4
 80009ee:	f8c0 9000 	str.w	r9, [r0]
 80009f2:	ea6f 0404 	mvn.w	r4, r4
 80009f6:	d811      	bhi.n	8000a1c <GPIO_Init+0x74>
 80009f8:	6887      	ldr	r7, [r0, #8]
 80009fa:	403c      	ands	r4, r7
 80009fc:	6084      	str	r4, [r0, #8]
 80009fe:	794c      	ldrb	r4, [r1, #5]
 8000a00:	6887      	ldr	r7, [r0, #8]
 8000a02:	4094      	lsls	r4, r2
 8000a04:	433c      	orrs	r4, r7
 8000a06:	6084      	str	r4, [r0, #8]
 8000a08:	6844      	ldr	r4, [r0, #4]
 8000a0a:	ea24 040c 	bic.w	r4, r4, ip
 8000a0e:	6044      	str	r4, [r0, #4]
 8000a10:	798c      	ldrb	r4, [r1, #6]
 8000a12:	6847      	ldr	r7, [r0, #4]
 8000a14:	409c      	lsls	r4, r3
 8000a16:	b2a4      	uxth	r4, r4
 8000a18:	433c      	orrs	r4, r7
 8000a1a:	6044      	str	r4, [r0, #4]
 8000a1c:	68c4      	ldr	r4, [r0, #12]
 8000a1e:	ea24 0408 	bic.w	r4, r4, r8
 8000a22:	60c4      	str	r4, [r0, #12]
 8000a24:	79cc      	ldrb	r4, [r1, #7]
 8000a26:	68c7      	ldr	r7, [r0, #12]
 8000a28:	4094      	lsls	r4, r2
 8000a2a:	3301      	adds	r3, #1
 8000a2c:	433c      	orrs	r4, r7
 8000a2e:	2b10      	cmp	r3, #16
 8000a30:	60c4      	str	r4, [r0, #12]
 8000a32:	f102 0202 	add.w	r2, r2, #2
 8000a36:	d1c5      	bne.n	80009c4 <GPIO_Init+0x1c>
 8000a38:	e8bd 87f0 	ldmia.w	sp!, {r4, r5, r6, r7, r8, r9, sl, pc}

08000a3c <GPIO_ReadInputDataBit>:
 8000a3c:	6903      	ldr	r3, [r0, #16]
 8000a3e:	4219      	tst	r1, r3
 8000a40:	bf14      	ite	ne
 8000a42:	2001      	movne	r0, #1
 8000a44:	2000      	moveq	r0, #0
 8000a46:	4770      	bx	lr

08000a48 <GPIO_SetBits>:
 8000a48:	6181      	str	r1, [r0, #24]
 8000a4a:	4770      	bx	lr

08000a4c <GPIO_ResetBits>:
 8000a4c:	0409      	lsls	r1, r1, #16
 8000a4e:	6181      	str	r1, [r0, #24]
 8000a50:	4770      	bx	lr
 8000a52:	bf00      	nop

08000a54 <GPIO_PinAFConfig>:
 8000a54:	08cb      	lsrs	r3, r1, #3
 8000a56:	eb00 0083 	add.w	r0, r0, r3, lsl #2
 8000a5a:	f001 0107 	and.w	r1, r1, #7
 8000a5e:	6a03      	ldr	r3, [r0, #32]
 8000a60:	0089      	lsls	r1, r1, #2
 8000a62:	f04f 0c0f 	mov.w	ip, #15
 8000a66:	fa0c fc01 	lsl.w	ip, ip, r1
 8000a6a:	ea23 030c 	bic.w	r3, r3, ip
 8000a6e:	6203      	str	r3, [r0, #32]
 8000a70:	6a03      	ldr	r3, [r0, #32]
 8000a72:	408a      	lsls	r2, r1
 8000a74:	431a      	orrs	r2, r3
 8000a76:	6202      	str	r2, [r0, #32]
 8000a78:	4770      	bx	lr
 8000a7a:	bf00      	nop

08000a7c <RCC_GetClocksFreq>:
 8000a7c:	4a1e      	ldr	r2, [pc, #120]	@ (8000af8 <RCC_GetClocksFreq+0x7c>)
 8000a7e:	6893      	ldr	r3, [r2, #8]
 8000a80:	f003 030c 	and.w	r3, r3, #12
 8000a84:	2b04      	cmp	r3, #4
 8000a86:	b410      	push	{r4}
 8000a88:	d01b      	beq.n	8000ac2 <RCC_GetClocksFreq+0x46>
 8000a8a:	2b08      	cmp	r3, #8
 8000a8c:	d01b      	beq.n	8000ac6 <RCC_GetClocksFreq+0x4a>
 8000a8e:	4b1b      	ldr	r3, [pc, #108]	@ (8000afc <RCC_GetClocksFreq+0x80>)
 8000a90:	4a19      	ldr	r2, [pc, #100]	@ (8000af8 <RCC_GetClocksFreq+0x7c>)
 8000a92:	6003      	str	r3, [r0, #0]
 8000a94:	6894      	ldr	r4, [r2, #8]
 8000a96:	491a      	ldr	r1, [pc, #104]	@ (8000b00 <RCC_GetClocksFreq+0x84>)
 8000a98:	f3c4 1403 	ubfx	r4, r4, #4, #4
 8000a9c:	5d0c      	ldrb	r4, [r1, r4]
 8000a9e:	40e3      	lsrs	r3, r4
 8000aa0:	6043      	str	r3, [r0, #4]
 8000aa2:	6894      	ldr	r4, [r2, #8]
 8000aa4:	f3c4 2482 	ubfx	r4, r4, #10, #3
 8000aa8:	5d0c      	ldrb	r4, [r1, r4]
 8000aaa:	fa23 f404 	lsr.w	r4, r3, r4
 8000aae:	6084      	str	r4, [r0, #8]
 8000ab0:	6892      	ldr	r2, [r2, #8]
 8000ab2:	f85d 4b04 	ldr.w	r4, [sp], #4
 8000ab6:	f3c2 3242 	ubfx	r2, r2, #13, #3
 8000aba:	5c8a      	ldrb	r2, [r1, r2]
 8000abc:	40d3      	lsrs	r3, r2
 8000abe:	60c3      	str	r3, [r0, #12]
 8000ac0:	4770      	bx	lr
 8000ac2:	4b10      	ldr	r3, [pc, #64]	@ (8000b04 <RCC_GetClocksFreq+0x88>)
 8000ac4:	e7e4      	b.n	8000a90 <RCC_GetClocksFreq+0x14>
 8000ac6:	6853      	ldr	r3, [r2, #4]
 8000ac8:	6851      	ldr	r1, [r2, #4]
 8000aca:	f413 0f80 	tst.w	r3, #4194304	@ 0x400000
 8000ace:	6853      	ldr	r3, [r2, #4]
 8000ad0:	bf14      	ite	ne
 8000ad2:	4a0c      	ldrne	r2, [pc, #48]	@ (8000b04 <RCC_GetClocksFreq+0x88>)
 8000ad4:	4a09      	ldreq	r2, [pc, #36]	@ (8000afc <RCC_GetClocksFreq+0x80>)
 8000ad6:	f3c3 1388 	ubfx	r3, r3, #6, #9
 8000ada:	f001 013f 	and.w	r1, r1, #63	@ 0x3f
 8000ade:	fbb2 f2f1 	udiv	r2, r2, r1
 8000ae2:	fb02 f303 	mul.w	r3, r2, r3
 8000ae6:	4a04      	ldr	r2, [pc, #16]	@ (8000af8 <RCC_GetClocksFreq+0x7c>)
 8000ae8:	6852      	ldr	r2, [r2, #4]
 8000aea:	f3c2 4201 	ubfx	r2, r2, #16, #2
 8000aee:	3201      	adds	r2, #1
 8000af0:	0052      	lsls	r2, r2, #1
 8000af2:	fbb3 f3f2 	udiv	r3, r3, r2
 8000af6:	e7cb      	b.n	8000a90 <RCC_GetClocksFreq+0x14>
 8000af8:	40023800 	.word	0x40023800
 8000afc:	00f42400 	.word	0x00f42400
 8000b00:	20000004 	.word	0x20000004
 8000b04:	017d7840 	.word	0x017d7840

08000b08 <RCC_AHB1PeriphClockCmd>:
 8000b08:	4a04      	ldr	r2, [pc, #16]	@ (8000b1c <RCC_AHB1PeriphClockCmd+0x14>)
 8000b0a:	6b13      	ldr	r3, [r2, #48]	@ 0x30
 8000b0c:	b111      	cbz	r1, 8000b14 <RCC_AHB1PeriphClockCmd+0xc>
 8000b0e:	4303      	orrs	r3, r0
 8000b10:	6313      	str	r3, [r2, #48]	@ 0x30
 8000b12:	4770      	bx	lr
 8000b14:	ea23 0300 	bic.w	r3, r3, r0
 8000b18:	6313      	str	r3, [r2, #48]	@ 0x30
 8000b1a:	4770      	bx	lr
 8000b1c:	40023800 	.word	0x40023800

08000b20 <RCC_AHB2PeriphClockCmd>:
 8000b20:	4a04      	ldr	r2, [pc, #16]	@ (8000b34 <RCC_AHB2PeriphClockCmd+0x14>)
 8000b22:	6b53      	ldr	r3, [r2, #52]	@ 0x34
 8000b24:	b111      	cbz	r1, 8000b2c <RCC_AHB2PeriphClockCmd+0xc>
 8000b26:	4303      	orrs	r3, r0
 8000b28:	6353      	str	r3, [r2, #52]	@ 0x34
 8000b2a:	4770      	bx	lr
 8000b2c:	ea23 0300 	bic.w	r3, r3, r0
 8000b30:	6353      	str	r3, [r2, #52]	@ 0x34
 8000b32:	4770      	bx	lr
 8000b34:	40023800 	.word	0x40023800

08000b38 <RCC_APB1PeriphClockCmd>:
 8000b38:	4a04      	ldr	r2, [pc, #16]	@ (8000b4c <RCC_APB1PeriphClockCmd+0x14>)
 8000b3a:	6c13      	ldr	r3, [r2, #64]	@ 0x40
 8000b3c:	b111      	cbz	r1, 8000b44 <RCC_APB1PeriphClockCmd+0xc>
 8000b3e:	4303      	orrs	r3, r0
 8000b40:	6413      	str	r3, [r2, #64]	@ 0x40
 8000b42:	4770      	bx	lr
 8000b44:	ea23 0300 	bic.w	r3, r3, r0
 8000b48:	6413      	str	r3, [r2, #64]	@ 0x40
 8000b4a:	4770      	bx	lr
 8000b4c:	40023800 	.word	0x40023800

08000b50 <RCC_APB2PeriphClockCmd>:
 8000b50:	4a04      	ldr	r2, [pc, #16]	@ (8000b64 <RCC_APB2PeriphClockCmd+0x14>)
 8000b52:	6c53      	ldr	r3, [r2, #68]	@ 0x44
 8000b54:	b111      	cbz	r1, 8000b5c <RCC_APB2PeriphClockCmd+0xc>
 8000b56:	4303      	orrs	r3, r0
 8000b58:	6453      	str	r3, [r2, #68]	@ 0x44
 8000b5a:	4770      	bx	lr
 8000b5c:	ea23 0300 	bic.w	r3, r3, r0
 8000b60:	6453      	str	r3, [r2, #68]	@ 0x44
 8000b62:	4770      	bx	lr
 8000b64:	40023800 	.word	0x40023800

08000b68 <RCC_APB1PeriphResetCmd>:
 8000b68:	4a04      	ldr	r2, [pc, #16]	@ (8000b7c <RCC_APB1PeriphResetCmd+0x14>)
 8000b6a:	6a13      	ldr	r3, [r2, #32]
 8000b6c:	b111      	cbz	r1, 8000b74 <RCC_APB1PeriphResetCmd+0xc>
 8000b6e:	4303      	orrs	r3, r0
 8000b70:	6213      	str	r3, [r2, #32]
 8000b72:	4770      	bx	lr
 8000b74:	ea23 0300 	bic.w	r3, r3, r0
 8000b78:	6213      	str	r3, [r2, #32]
 8000b7a:	4770      	bx	lr
 8000b7c:	40023800 	.word	0x40023800

08000b80 <SYSCFG_EXTILineConfig>:
 8000b80:	f001 03fc 	and.w	r3, r1, #252	@ 0xfc
 8000b84:	f103 4380 	add.w	r3, r3, #1073741824	@ 0x40000000
 8000b88:	f503 339c 	add.w	r3, r3, #79872	@ 0x13800
 8000b8c:	f001 0103 	and.w	r1, r1, #3
 8000b90:	689a      	ldr	r2, [r3, #8]
 8000b92:	0089      	lsls	r1, r1, #2
 8000b94:	f04f 0c0f 	mov.w	ip, #15
 8000b98:	fa0c fc01 	lsl.w	ip, ip, r1
 8000b9c:	ea22 020c 	bic.w	r2, r2, ip
 8000ba0:	609a      	str	r2, [r3, #8]
 8000ba2:	689a      	ldr	r2, [r3, #8]
 8000ba4:	4088      	lsls	r0, r1
 8000ba6:	4310      	orrs	r0, r2
 8000ba8:	6098      	str	r0, [r3, #8]
 8000baa:	4770      	bx	lr

08000bac <USART_Init>:
 8000bac:	6902      	ldr	r2, [r0, #16]
 8000bae:	88cb      	ldrh	r3, [r1, #6]
 8000bb0:	f422 5240 	bic.w	r2, r2, #12288	@ 0x3000
 8000bb4:	4313      	orrs	r3, r2
 8000bb6:	b29b      	uxth	r3, r3
 8000bb8:	b530      	push	{r4, r5, lr}
 8000bba:	898a      	ldrh	r2, [r1, #12]
 8000bbc:	6103      	str	r3, [r0, #16]
 8000bbe:	4604      	mov	r4, r0
 8000bc0:	888b      	ldrh	r3, [r1, #4]
 8000bc2:	8908      	ldrh	r0, [r1, #8]
 8000bc4:	460d      	mov	r5, r1
 8000bc6:	4303      	orrs	r3, r0
 8000bc8:	68e1      	ldr	r1, [r4, #12]
 8000bca:	8968      	ldrh	r0, [r5, #10]
 8000bcc:	f421 51b0 	bic.w	r1, r1, #5632	@ 0x1600
 8000bd0:	4303      	orrs	r3, r0
 8000bd2:	f021 010c 	bic.w	r1, r1, #12
 8000bd6:	b29b      	uxth	r3, r3
 8000bd8:	430b      	orrs	r3, r1
 8000bda:	b29b      	uxth	r3, r3
 8000bdc:	60e3      	str	r3, [r4, #12]
 8000bde:	6963      	ldr	r3, [r4, #20]
 8000be0:	f423 7340 	bic.w	r3, r3, #768	@ 0x300
 8000be4:	4313      	orrs	r3, r2
 8000be6:	b29b      	uxth	r3, r3
 8000be8:	b085      	sub	sp, #20
 8000bea:	6163      	str	r3, [r4, #20]
 8000bec:	4668      	mov	r0, sp
 8000bee:	f7ff ff45 	bl	8000a7c <RCC_GetClocksFreq>
 8000bf2:	4b1c      	ldr	r3, [pc, #112]	@ (8000c64 <USART_Init+0xb8>)
 8000bf4:	429c      	cmp	r4, r3
 8000bf6:	d005      	beq.n	8000c04 <USART_Init+0x58>
 8000bf8:	f503 6380 	add.w	r3, r3, #1024	@ 0x400
 8000bfc:	429c      	cmp	r4, r3
 8000bfe:	d001      	beq.n	8000c04 <USART_Init+0x58>
 8000c00:	9b02      	ldr	r3, [sp, #8]
 8000c02:	e000      	b.n	8000c06 <USART_Init+0x5a>
 8000c04:	9b03      	ldr	r3, [sp, #12]
 8000c06:	68e1      	ldr	r1, [r4, #12]
 8000c08:	682a      	ldr	r2, [r5, #0]
 8000c0a:	68e5      	ldr	r5, [r4, #12]
 8000c0c:	0408      	lsls	r0, r1, #16
 8000c0e:	4816      	ldr	r0, [pc, #88]	@ (8000c68 <USART_Init+0xbc>)
 8000c10:	eb03 0383 	add.w	r3, r3, r3, lsl #2
 8000c14:	bf4c      	ite	mi
 8000c16:	0052      	lslmi	r2, r2, #1
 8000c18:	0092      	lslpl	r2, r2, #2
 8000c1a:	eb03 0383 	add.w	r3, r3, r3, lsl #2
 8000c1e:	fbb3 f3f2 	udiv	r3, r3, r2
 8000c22:	fba0 2103 	umull	r2, r1, r0, r3
 8000c26:	0949      	lsrs	r1, r1, #5
 8000c28:	f04f 0c64 	mov.w	ip, #100	@ 0x64
 8000c2c:	010a      	lsls	r2, r1, #4
 8000c2e:	fb0c 3311 	mls	r3, ip, r1, r3
 8000c32:	0429      	lsls	r1, r5, #16
 8000c34:	d50a      	bpl.n	8000c4c <USART_Init+0xa0>
 8000c36:	00db      	lsls	r3, r3, #3
 8000c38:	3332      	adds	r3, #50	@ 0x32
 8000c3a:	fba0 0303 	umull	r0, r3, r0, r3
 8000c3e:	f3c3 1342 	ubfx	r3, r3, #5, #3
 8000c42:	4313      	orrs	r3, r2
 8000c44:	b29b      	uxth	r3, r3
 8000c46:	60a3      	str	r3, [r4, #8]
 8000c48:	b005      	add	sp, #20
 8000c4a:	bd30      	pop	{r4, r5, pc}
 8000c4c:	011b      	lsls	r3, r3, #4
 8000c4e:	3332      	adds	r3, #50	@ 0x32
 8000c50:	fba0 0303 	umull	r0, r3, r0, r3
 8000c54:	f3c3 1343 	ubfx	r3, r3, #5, #4
 8000c58:	4313      	orrs	r3, r2
 8000c5a:	b29b      	uxth	r3, r3
 8000c5c:	60a3      	str	r3, [r4, #8]
 8000c5e:	b005      	add	sp, #20
 8000c60:	bd30      	pop	{r4, r5, pc}
 8000c62:	bf00      	nop
 8000c64:	40011000 	.word	0x40011000
 8000c68:	51eb851f 	.word	0x51eb851f

08000c6c <USART_Cmd>:
 8000c6c:	68c3      	ldr	r3, [r0, #12]
 8000c6e:	b119      	cbz	r1, 8000c78 <USART_Cmd+0xc>
 8000c70:	f443 5300 	orr.w	r3, r3, #8192	@ 0x2000
 8000c74:	60c3      	str	r3, [r0, #12]
 8000c76:	4770      	bx	lr
 8000c78:	f64d 72ff 	movw	r2, #57343	@ 0xdfff
 8000c7c:	4013      	ands	r3, r2
 8000c7e:	60c3      	str	r3, [r0, #12]
 8000c80:	4770      	bx	lr
 8000c82:	bf00      	nop

08000c84 <USART_SendData>:
 8000c84:	f3c1 0108 	ubfx	r1, r1, #0, #9
 8000c88:	6041      	str	r1, [r0, #4]
 8000c8a:	4770      	bx	lr

08000c8c <USART_ReceiveData>:
 8000c8c:	6840      	ldr	r0, [r0, #4]
 8000c8e:	f3c0 0008 	ubfx	r0, r0, #0, #9
 8000c92:	4770      	bx	lr

08000c94 <USART_ITConfig>:
 8000c94:	f001 0c1f 	and.w	ip, r1, #31
 8000c98:	f3c1 1142 	ubfx	r1, r1, #5, #3
 8000c9c:	2301      	movs	r3, #1
 8000c9e:	2901      	cmp	r1, #1
 8000ca0:	fa03 f30c 	lsl.w	r3, r3, ip
 8000ca4:	d00d      	beq.n	8000cc2 <USART_ITConfig+0x2e>
 8000ca6:	2902      	cmp	r1, #2
 8000ca8:	bf0c      	ite	eq
 8000caa:	3010      	addeq	r0, #16
 8000cac:	3014      	addne	r0, #20
 8000cae:	b11a      	cbz	r2, 8000cb8 <USART_ITConfig+0x24>
 8000cb0:	6802      	ldr	r2, [r0, #0]
 8000cb2:	4313      	orrs	r3, r2
 8000cb4:	6003      	str	r3, [r0, #0]
 8000cb6:	4770      	bx	lr
 8000cb8:	6802      	ldr	r2, [r0, #0]
 8000cba:	ea22 0303 	bic.w	r3, r2, r3
 8000cbe:	6003      	str	r3, [r0, #0]
 8000cc0:	4770      	bx	lr
 8000cc2:	300c      	adds	r0, #12
 8000cc4:	e7f3      	b.n	8000cae <USART_ITConfig+0x1a>
 8000cc6:	bf00      	nop

08000cc8 <USART_GetFlagStatus>:
 8000cc8:	6803      	ldr	r3, [r0, #0]
 8000cca:	4219      	tst	r1, r3
 8000ccc:	bf14      	ite	ne
 8000cce:	2001      	movne	r0, #1
 8000cd0:	2000      	moveq	r0, #0
 8000cd2:	4770      	bx	lr

08000cd4 <USART_GetITStatus>:
 8000cd4:	f3c1 1242 	ubfx	r2, r1, #5, #3
 8000cd8:	f001 0c1f 	and.w	ip, r1, #31
 8000cdc:	2301      	movs	r3, #1
 8000cde:	2a01      	cmp	r2, #1
 8000ce0:	fa03 f30c 	lsl.w	r3, r3, ip
 8000ce4:	d010      	beq.n	8000d08 <USART_GetITStatus+0x34>
 8000ce6:	2a02      	cmp	r2, #2
 8000ce8:	bf0c      	ite	eq
 8000cea:	6902      	ldreq	r2, [r0, #16]
 8000cec:	6942      	ldrne	r2, [r0, #20]
 8000cee:	4013      	ands	r3, r2
 8000cf0:	6802      	ldr	r2, [r0, #0]
 8000cf2:	b13b      	cbz	r3, 8000d04 <USART_GetITStatus+0x30>
 8000cf4:	0a09      	lsrs	r1, r1, #8
 8000cf6:	2301      	movs	r3, #1
 8000cf8:	408b      	lsls	r3, r1
 8000cfa:	4213      	tst	r3, r2
 8000cfc:	bf14      	ite	ne
 8000cfe:	2001      	movne	r0, #1
 8000d00:	2000      	moveq	r0, #0
 8000d02:	4770      	bx	lr
 8000d04:	4618      	mov	r0, r3
 8000d06:	4770      	bx	lr
 8000d08:	68c2      	ldr	r2, [r0, #12]
 8000d0a:	4013      	ands	r3, r2
 8000d0c:	e7f0      	b.n	8000cf0 <USART_GetITStatus+0x1c>
 8000d0e:	bf00      	nop

08000d10 <SystemInit>:
 8000d10:	4838      	ldr	r0, [pc, #224]	@ (8000df4 <SystemInit+0xe4>)
 8000d12:	4a39      	ldr	r2, [pc, #228]	@ (8000df8 <SystemInit+0xe8>)
 8000d14:	f8d0 3088 	ldr.w	r3, [r0, #136]	@ 0x88
 8000d18:	f443 0370 	orr.w	r3, r3, #15728640	@ 0xf00000
 8000d1c:	f8c0 3088 	str.w	r3, [r0, #136]	@ 0x88
 8000d20:	6813      	ldr	r3, [r2, #0]
 8000d22:	2100      	movs	r1, #0
 8000d24:	f043 0301 	orr.w	r3, r3, #1
 8000d28:	6013      	str	r3, [r2, #0]
 8000d2a:	6091      	str	r1, [r2, #8]
 8000d2c:	6813      	ldr	r3, [r2, #0]
 8000d2e:	f1a0 20bc 	sub.w	r0, r0, #3154164736	@ 0xbc00bc00
 8000d32:	f023 7384 	bic.w	r3, r3, #17301504	@ 0x1080000
 8000d36:	f423 3380 	bic.w	r3, r3, #65536	@ 0x10000
 8000d3a:	38f0      	subs	r0, #240	@ 0xf0
 8000d3c:	6013      	str	r3, [r2, #0]
 8000d3e:	6050      	str	r0, [r2, #4]
 8000d40:	6813      	ldr	r3, [r2, #0]
 8000d42:	b082      	sub	sp, #8
 8000d44:	f423 2380 	bic.w	r3, r3, #262144	@ 0x40000
 8000d48:	6013      	str	r3, [r2, #0]
 8000d4a:	60d1      	str	r1, [r2, #12]
 8000d4c:	9100      	str	r1, [sp, #0]
 8000d4e:	9101      	str	r1, [sp, #4]
 8000d50:	6813      	ldr	r3, [r2, #0]
 8000d52:	f443 3380 	orr.w	r3, r3, #65536	@ 0x10000
 8000d56:	6013      	str	r3, [r2, #0]
 8000d58:	e003      	b.n	8000d62 <SystemInit+0x52>
 8000d5a:	9b00      	ldr	r3, [sp, #0]
 8000d5c:	f5b3 4fa0 	cmp.w	r3, #20480	@ 0x5000
 8000d60:	d009      	beq.n	8000d76 <SystemInit+0x66>
 8000d62:	6813      	ldr	r3, [r2, #0]
 8000d64:	f403 3300 	and.w	r3, r3, #131072	@ 0x20000
 8000d68:	9301      	str	r3, [sp, #4]
 8000d6a:	9b00      	ldr	r3, [sp, #0]
 8000d6c:	3301      	adds	r3, #1
 8000d6e:	9300      	str	r3, [sp, #0]
 8000d70:	9b01      	ldr	r3, [sp, #4]
 8000d72:	2b00      	cmp	r3, #0
 8000d74:	d0f1      	beq.n	8000d5a <SystemInit+0x4a>
 8000d76:	4b20      	ldr	r3, [pc, #128]	@ (8000df8 <SystemInit+0xe8>)
 8000d78:	681b      	ldr	r3, [r3, #0]
 8000d7a:	f413 3300 	ands.w	r3, r3, #131072	@ 0x20000
 8000d7e:	bf18      	it	ne
 8000d80:	2301      	movne	r3, #1
 8000d82:	9301      	str	r3, [sp, #4]
 8000d84:	9b01      	ldr	r3, [sp, #4]
 8000d86:	2b01      	cmp	r3, #1
 8000d88:	d005      	beq.n	8000d96 <SystemInit+0x86>
 8000d8a:	4b1a      	ldr	r3, [pc, #104]	@ (8000df4 <SystemInit+0xe4>)
 8000d8c:	f04f 6200 	mov.w	r2, #134217728	@ 0x8000000
 8000d90:	609a      	str	r2, [r3, #8]
 8000d92:	b002      	add	sp, #8
 8000d94:	4770      	bx	lr
 8000d96:	4b18      	ldr	r3, [pc, #96]	@ (8000df8 <SystemInit+0xe8>)
 8000d98:	4918      	ldr	r1, [pc, #96]	@ (8000dfc <SystemInit+0xec>)
 8000d9a:	6c1a      	ldr	r2, [r3, #64]	@ 0x40
 8000d9c:	4818      	ldr	r0, [pc, #96]	@ (8000e00 <SystemInit+0xf0>)
 8000d9e:	f042 5280 	orr.w	r2, r2, #268435456	@ 0x10000000
 8000da2:	641a      	str	r2, [r3, #64]	@ 0x40
 8000da4:	680a      	ldr	r2, [r1, #0]
 8000da6:	f442 4240 	orr.w	r2, r2, #49152	@ 0xc000
 8000daa:	600a      	str	r2, [r1, #0]
 8000dac:	689a      	ldr	r2, [r3, #8]
 8000dae:	609a      	str	r2, [r3, #8]
 8000db0:	689a      	ldr	r2, [r3, #8]
 8000db2:	609a      	str	r2, [r3, #8]
 8000db4:	689a      	ldr	r2, [r3, #8]
 8000db6:	f442 5280 	orr.w	r2, r2, #4096	@ 0x1000
 8000dba:	609a      	str	r2, [r3, #8]
 8000dbc:	6058      	str	r0, [r3, #4]
 8000dbe:	681a      	ldr	r2, [r3, #0]
 8000dc0:	f042 7280 	orr.w	r2, r2, #16777216	@ 0x1000000
 8000dc4:	601a      	str	r2, [r3, #0]
 8000dc6:	681a      	ldr	r2, [r3, #0]
 8000dc8:	0192      	lsls	r2, r2, #6
 8000dca:	d5fc      	bpl.n	8000dc6 <SystemInit+0xb6>
 8000dcc:	4a0d      	ldr	r2, [pc, #52]	@ (8000e04 <SystemInit+0xf4>)
 8000dce:	f240 6102 	movw	r1, #1538	@ 0x602
 8000dd2:	6011      	str	r1, [r2, #0]
 8000dd4:	6899      	ldr	r1, [r3, #8]
 8000dd6:	f021 0103 	bic.w	r1, r1, #3
 8000dda:	6099      	str	r1, [r3, #8]
 8000ddc:	6899      	ldr	r1, [r3, #8]
 8000dde:	f041 0102 	orr.w	r1, r1, #2
 8000de2:	f5a2 6280 	sub.w	r2, r2, #1024	@ 0x400
 8000de6:	6099      	str	r1, [r3, #8]
 8000de8:	6893      	ldr	r3, [r2, #8]
 8000dea:	f003 030c 	and.w	r3, r3, #12
 8000dee:	2b08      	cmp	r3, #8
 8000df0:	d1fa      	bne.n	8000de8 <SystemInit+0xd8>
 8000df2:	e7ca      	b.n	8000d8a <SystemInit+0x7a>
 8000df4:	e000ed00 	.word	0xe000ed00
 8000df8:	40023800 	.word	0x40023800
 8000dfc:	40007000 	.word	0x40007000
 8000e00:	07415419 	.word	0x07415419
 8000e04:	40023c00 	.word	0x40023c00

08000e08 <SystemCoreClockUpdate>:
 8000e08:	4a16      	ldr	r2, [pc, #88]	@ (8000e64 <SystemCoreClockUpdate+0x5c>)
 8000e0a:	6893      	ldr	r3, [r2, #8]
 8000e0c:	f003 030c 	and.w	r3, r3, #12
 8000e10:	2b04      	cmp	r3, #4
 8000e12:	d00c      	beq.n	8000e2e <SystemCoreClockUpdate+0x26>
 8000e14:	2b08      	cmp	r3, #8
 8000e16:	d00c      	beq.n	8000e32 <SystemCoreClockUpdate+0x2a>
 8000e18:	4b13      	ldr	r3, [pc, #76]	@ (8000e68 <SystemCoreClockUpdate+0x60>)
 8000e1a:	4a12      	ldr	r2, [pc, #72]	@ (8000e64 <SystemCoreClockUpdate+0x5c>)
 8000e1c:	4813      	ldr	r0, [pc, #76]	@ (8000e6c <SystemCoreClockUpdate+0x64>)
 8000e1e:	6892      	ldr	r2, [r2, #8]
 8000e20:	4913      	ldr	r1, [pc, #76]	@ (8000e70 <SystemCoreClockUpdate+0x68>)
 8000e22:	f3c2 1203 	ubfx	r2, r2, #4, #4
 8000e26:	5c82      	ldrb	r2, [r0, r2]
 8000e28:	40d3      	lsrs	r3, r2
 8000e2a:	600b      	str	r3, [r1, #0]
 8000e2c:	4770      	bx	lr
 8000e2e:	4b11      	ldr	r3, [pc, #68]	@ (8000e74 <SystemCoreClockUpdate+0x6c>)
 8000e30:	e7f3      	b.n	8000e1a <SystemCoreClockUpdate+0x12>
 8000e32:	6853      	ldr	r3, [r2, #4]
 8000e34:	6851      	ldr	r1, [r2, #4]
 8000e36:	f413 0f80 	tst.w	r3, #4194304	@ 0x400000
 8000e3a:	6853      	ldr	r3, [r2, #4]
 8000e3c:	bf14      	ite	ne
 8000e3e:	4a0d      	ldrne	r2, [pc, #52]	@ (8000e74 <SystemCoreClockUpdate+0x6c>)
 8000e40:	4a09      	ldreq	r2, [pc, #36]	@ (8000e68 <SystemCoreClockUpdate+0x60>)
 8000e42:	f3c3 1388 	ubfx	r3, r3, #6, #9
 8000e46:	f001 013f 	and.w	r1, r1, #63	@ 0x3f
 8000e4a:	fbb2 f2f1 	udiv	r2, r2, r1
 8000e4e:	fb02 f303 	mul.w	r3, r2, r3
 8000e52:	4a04      	ldr	r2, [pc, #16]	@ (8000e64 <SystemCoreClockUpdate+0x5c>)
 8000e54:	6852      	ldr	r2, [r2, #4]
 8000e56:	f3c2 4201 	ubfx	r2, r2, #16, #2
 8000e5a:	3201      	adds	r2, #1
 8000e5c:	0052      	lsls	r2, r2, #1
 8000e5e:	fbb3 f3f2 	udiv	r3, r3, r2
 8000e62:	e7da      	b.n	8000e1a <SystemCoreClockUpdate+0x12>
 8000e64:	40023800 	.word	0x40023800
 8000e68:	00f42400 	.word	0x00f42400
 8000e6c:	20000014 	.word	0x20000014
 8000e70:	20000024 	.word	0x20000024
 8000e74:	017d7840 	.word	0x017d7840

08000e78 <USART1_IRQHandler>:
 8000e78:	b538      	push	{r3, r4, r5, lr}
 8000e7a:	4d15      	ldr	r5, [pc, #84]	@ (8000ed0 <USART1_IRQHandler+0x58>)
 8000e7c:	4c15      	ldr	r4, [pc, #84]	@ (8000ed4 <USART1_IRQHandler+0x5c>)
 8000e7e:	4814      	ldr	r0, [pc, #80]	@ (8000ed0 <USART1_IRQHandler+0x58>)
 8000e80:	f240 5125 	movw	r1, #1317	@ 0x525
 8000e84:	f7ff ff26 	bl	8000cd4 <USART_GetITStatus>
 8000e88:	4603      	mov	r3, r0
 8000e8a:	4628      	mov	r0, r5
 8000e8c:	b1fb      	cbz	r3, 8000ece <USART1_IRQHandler+0x56>
 8000e8e:	f7ff fefd 	bl	8000c8c <USART_ReceiveData>
 8000e92:	f8b4 3082 	ldrh.w	r3, [r4, #130]	@ 0x82
 8000e96:	f8b4 2080 	ldrh.w	r2, [r4, #128]	@ 0x80
 8000e9a:	3301      	adds	r3, #1
 8000e9c:	f003 037f 	and.w	r3, r3, #127	@ 0x7f
 8000ea0:	b292      	uxth	r2, r2
 8000ea2:	4293      	cmp	r3, r2
 8000ea4:	b2c0      	uxtb	r0, r0
 8000ea6:	d00c      	beq.n	8000ec2 <USART1_IRQHandler+0x4a>
 8000ea8:	f8b4 2082 	ldrh.w	r2, [r4, #130]	@ 0x82
 8000eac:	b292      	uxth	r2, r2
 8000eae:	54a0      	strb	r0, [r4, r2]
 8000eb0:	f8a4 3082 	strh.w	r3, [r4, #130]	@ 0x82
 8000eb4:	f8b4 3084 	ldrh.w	r3, [r4, #132]	@ 0x84
 8000eb8:	3301      	adds	r3, #1
 8000eba:	b29b      	uxth	r3, r3
 8000ebc:	f8a4 3084 	strh.w	r3, [r4, #132]	@ 0x84
 8000ec0:	e7dd      	b.n	8000e7e <USART1_IRQHandler+0x6>
 8000ec2:	f8d4 3088 	ldr.w	r3, [r4, #136]	@ 0x88
 8000ec6:	3301      	adds	r3, #1
 8000ec8:	f8c4 3088 	str.w	r3, [r4, #136]	@ 0x88
 8000ecc:	e7d7      	b.n	8000e7e <USART1_IRQHandler+0x6>
 8000ece:	bd38      	pop	{r3, r4, r5, pc}
 8000ed0:	40011000 	.word	0x40011000
 8000ed4:	20000140 	.word	0x20000140

08000ed8 <USART2_IRQHandler>:
 8000ed8:	b538      	push	{r3, r4, r5, lr}
 8000eda:	4d16      	ldr	r5, [pc, #88]	@ (8000f34 <USART2_IRQHandler+0x5c>)
 8000edc:	4c16      	ldr	r4, [pc, #88]	@ (8000f38 <USART2_IRQHandler+0x60>)
 8000ede:	4815      	ldr	r0, [pc, #84]	@ (8000f34 <USART2_IRQHandler+0x5c>)
 8000ee0:	f240 5125 	movw	r1, #1317	@ 0x525
 8000ee4:	f7ff fef6 	bl	8000cd4 <USART_GetITStatus>
 8000ee8:	4603      	mov	r3, r0
 8000eea:	4628      	mov	r0, r5
 8000eec:	b30b      	cbz	r3, 8000f32 <USART2_IRQHandler+0x5a>
 8000eee:	f7ff fecd 	bl	8000c8c <USART_ReceiveData>
 8000ef2:	f8b4 3112 	ldrh.w	r3, [r4, #274]	@ 0x112
 8000ef6:	f8b4 2110 	ldrh.w	r2, [r4, #272]	@ 0x110
 8000efa:	3301      	adds	r3, #1
 8000efc:	f003 037f 	and.w	r3, r3, #127	@ 0x7f
 8000f00:	b292      	uxth	r2, r2
 8000f02:	4293      	cmp	r3, r2
 8000f04:	b2c0      	uxtb	r0, r0
 8000f06:	d00e      	beq.n	8000f26 <USART2_IRQHandler+0x4e>
 8000f08:	f8b4 2112 	ldrh.w	r2, [r4, #274]	@ 0x112
 8000f0c:	fa14 f282 	uxtah	r2, r4, r2
 8000f10:	f882 0090 	strb.w	r0, [r2, #144]	@ 0x90
 8000f14:	f8a4 3112 	strh.w	r3, [r4, #274]	@ 0x112
 8000f18:	f8b4 3114 	ldrh.w	r3, [r4, #276]	@ 0x114
 8000f1c:	3301      	adds	r3, #1
 8000f1e:	b29b      	uxth	r3, r3
 8000f20:	f8a4 3114 	strh.w	r3, [r4, #276]	@ 0x114
 8000f24:	e7db      	b.n	8000ede <USART2_IRQHandler+0x6>
 8000f26:	f8d4 3118 	ldr.w	r3, [r4, #280]	@ 0x118
 8000f2a:	3301      	adds	r3, #1
 8000f2c:	f8c4 3118 	str.w	r3, [r4, #280]	@ 0x118
 8000f30:	e7d5      	b.n	8000ede <USART2_IRQHandler+0x6>
 8000f32:	bd38      	pop	{r3, r4, r5, pc}
 8000f34:	40004400 	.word	0x40004400
 8000f38:	20000140 	.word	0x20000140

08000f3c <USART6_IRQHandler>:
 8000f3c:	b538      	push	{r3, r4, r5, lr}
 8000f3e:	4d16      	ldr	r5, [pc, #88]	@ (8000f98 <USART6_IRQHandler+0x5c>)
 8000f40:	4c16      	ldr	r4, [pc, #88]	@ (8000f9c <USART6_IRQHandler+0x60>)
 8000f42:	4815      	ldr	r0, [pc, #84]	@ (8000f98 <USART6_IRQHandler+0x5c>)
 8000f44:	f240 5125 	movw	r1, #1317	@ 0x525
 8000f48:	f7ff fec4 	bl	8000cd4 <USART_GetITStatus>
 8000f4c:	4603      	mov	r3, r0
 8000f4e:	4628      	mov	r0, r5
 8000f50:	b30b      	cbz	r3, 8000f96 <USART6_IRQHandler+0x5a>
 8000f52:	f7ff fe9b 	bl	8000c8c <USART_ReceiveData>
 8000f56:	f8b4 31a2 	ldrh.w	r3, [r4, #418]	@ 0x1a2
 8000f5a:	f8b4 21a0 	ldrh.w	r2, [r4, #416]	@ 0x1a0
 8000f5e:	3301      	adds	r3, #1
 8000f60:	f003 037f 	and.w	r3, r3, #127	@ 0x7f
 8000f64:	b292      	uxth	r2, r2
 8000f66:	4293      	cmp	r3, r2
 8000f68:	b2c0      	uxtb	r0, r0
 8000f6a:	d00e      	beq.n	8000f8a <USART6_IRQHandler+0x4e>
 8000f6c:	f8b4 21a2 	ldrh.w	r2, [r4, #418]	@ 0x1a2
 8000f70:	fa14 f282 	uxtah	r2, r4, r2
 8000f74:	f882 0120 	strb.w	r0, [r2, #288]	@ 0x120
 8000f78:	f8a4 31a2 	strh.w	r3, [r4, #418]	@ 0x1a2
 8000f7c:	f8b4 31a4 	ldrh.w	r3, [r4, #420]	@ 0x1a4
 8000f80:	3301      	adds	r3, #1
 8000f82:	b29b      	uxth	r3, r3
 8000f84:	f8a4 31a4 	strh.w	r3, [r4, #420]	@ 0x1a4
 8000f88:	e7db      	b.n	8000f42 <USART6_IRQHandler+0x6>
 8000f8a:	f8d4 31a8 	ldr.w	r3, [r4, #424]	@ 0x1a8
 8000f8e:	3301      	adds	r3, #1
 8000f90:	f8c4 31a8 	str.w	r3, [r4, #424]	@ 0x1a8
 8000f94:	e7d5      	b.n	8000f42 <USART6_IRQHandler+0x6>
 8000f96:	bd38      	pop	{r3, r4, r5, pc}
 8000f98:	40011400 	.word	0x40011400
 8000f9c:	20000140 	.word	0x20000140

08000fa0 <uart_init>:
 8000fa0:	b530      	push	{r4, r5, lr}
 8000fa2:	460d      	mov	r5, r1
 8000fa4:	b08b      	sub	sp, #44	@ 0x2c
 8000fa6:	4614      	mov	r4, r2
 8000fa8:	2806      	cmp	r0, #6
 8000faa:	d805      	bhi.n	8000fb8 <uart_init+0x18>
 8000fac:	e8df f000 	tbb	[pc, r0]
 8000fb0:	043a6996 	.word	0x043a6996
 8000fb4:	0404      	.short	0x0404
 8000fb6:	08          	.byte	0x08
 8000fb7:	00          	.byte	0x00
 8000fb8:	f04f 30ff 	mov.w	r0, #4294967295	@ 0xffffffff
 8000fbc:	b00b      	add	sp, #44	@ 0x2c
 8000fbe:	bd30      	pop	{r4, r5, pc}
 8000fc0:	2101      	movs	r1, #1
 8000fc2:	4608      	mov	r0, r1
 8000fc4:	f7ff fda0 	bl	8000b08 <RCC_AHB1PeriphClockCmd>
 8000fc8:	2101      	movs	r1, #1
 8000fca:	2020      	movs	r0, #32
 8000fcc:	f7ff fdc0 	bl	8000b50 <RCC_APB2PeriphClockCmd>
 8000fd0:	486e      	ldr	r0, [pc, #440]	@ (800118c <uart_init+0x1ec>)
 8000fd2:	2208      	movs	r2, #8
 8000fd4:	210b      	movs	r1, #11
 8000fd6:	f7ff fd3d 	bl	8000a54 <GPIO_PinAFConfig>
 8000fda:	486c      	ldr	r0, [pc, #432]	@ (800118c <uart_init+0x1ec>)
 8000fdc:	2208      	movs	r2, #8
 8000fde:	210c      	movs	r1, #12
 8000fe0:	f7ff fd38 	bl	8000a54 <GPIO_PinAFConfig>
 8000fe4:	4b6a      	ldr	r3, [pc, #424]	@ (8001190 <uart_init+0x1f0>)
 8000fe6:	486b      	ldr	r0, [pc, #428]	@ (8001194 <uart_init+0x1f4>)
 8000fe8:	f44f 52c0 	mov.w	r2, #6144	@ 0x1800
 8000fec:	a904      	add	r1, sp, #16
 8000fee:	e9cd 2304 	strd	r2, r3, [sp, #16]
 8000ff2:	f7ff fcd9 	bl	80009a8 <GPIO_Init>
 8000ff6:	2300      	movs	r3, #0
 8000ff8:	f44f 2240 	mov.w	r2, #786432	@ 0xc0000
 8000ffc:	4866      	ldr	r0, [pc, #408]	@ (8001198 <uart_init+0x1f8>)
 8000ffe:	9506      	str	r5, [sp, #24]
 8001000:	a906      	add	r1, sp, #24
 8001002:	e9cd 3207 	strd	r3, r2, [sp, #28]
 8001006:	f8ad 3024 	strh.w	r3, [sp, #36]	@ 0x24
 800100a:	f7ff fdcf 	bl	8000bac <USART_Init>
 800100e:	2c00      	cmp	r4, #0
 8001010:	f000 80a9 	beq.w	8001166 <uart_init+0x1c6>
 8001014:	4860      	ldr	r0, [pc, #384]	@ (8001198 <uart_init+0x1f8>)
 8001016:	2101      	movs	r1, #1
 8001018:	f7ff fe28 	bl	8000c6c <USART_Cmd>
 800101c:	4b5f      	ldr	r3, [pc, #380]	@ (800119c <uart_init+0x1fc>)
 800101e:	f883 408c 	strb.w	r4, [r3, #140]	@ 0x8c
 8001022:	e077      	b.n	8001114 <uart_init+0x174>
 8001024:	2101      	movs	r1, #1
 8001026:	4608      	mov	r0, r1
 8001028:	f7ff fd6e 	bl	8000b08 <RCC_AHB1PeriphClockCmd>
 800102c:	2101      	movs	r1, #1
 800102e:	f44f 3000 	mov.w	r0, #131072	@ 0x20000
 8001032:	f7ff fd81 	bl	8000b38 <RCC_APB1PeriphClockCmd>
 8001036:	4855      	ldr	r0, [pc, #340]	@ (800118c <uart_init+0x1ec>)
 8001038:	2207      	movs	r2, #7
 800103a:	2102      	movs	r1, #2
 800103c:	f7ff fd0a 	bl	8000a54 <GPIO_PinAFConfig>
 8001040:	4852      	ldr	r0, [pc, #328]	@ (800118c <uart_init+0x1ec>)
 8001042:	2207      	movs	r2, #7
 8001044:	2103      	movs	r1, #3
 8001046:	f7ff fd05 	bl	8000a54 <GPIO_PinAFConfig>
 800104a:	4b51      	ldr	r3, [pc, #324]	@ (8001190 <uart_init+0x1f0>)
 800104c:	484f      	ldr	r0, [pc, #316]	@ (800118c <uart_init+0x1ec>)
 800104e:	220c      	movs	r2, #12
 8001050:	a904      	add	r1, sp, #16
 8001052:	e9cd 2304 	strd	r2, r3, [sp, #16]
 8001056:	f7ff fca7 	bl	80009a8 <GPIO_Init>
 800105a:	2300      	movs	r3, #0
 800105c:	f44f 2240 	mov.w	r2, #786432	@ 0xc0000
 8001060:	484f      	ldr	r0, [pc, #316]	@ (80011a0 <uart_init+0x200>)
 8001062:	9506      	str	r5, [sp, #24]
 8001064:	a906      	add	r1, sp, #24
 8001066:	e9cd 3207 	strd	r3, r2, [sp, #28]
 800106a:	f8ad 3024 	strh.w	r3, [sp, #36]	@ 0x24
 800106e:	f7ff fd9d 	bl	8000bac <USART_Init>
 8001072:	2c00      	cmp	r4, #0
 8001074:	d064      	beq.n	8001140 <uart_init+0x1a0>
 8001076:	484a      	ldr	r0, [pc, #296]	@ (80011a0 <uart_init+0x200>)
 8001078:	2101      	movs	r1, #1
 800107a:	f7ff fdf7 	bl	8000c6c <USART_Cmd>
 800107e:	4b49      	ldr	r3, [pc, #292]	@ (80011a4 <uart_init+0x204>)
 8001080:	e7cd      	b.n	800101e <uart_init+0x7e>
 8001082:	2101      	movs	r1, #1
 8001084:	2002      	movs	r0, #2
 8001086:	f7ff fd3f 	bl	8000b08 <RCC_AHB1PeriphClockCmd>
 800108a:	2101      	movs	r1, #1
 800108c:	2010      	movs	r0, #16
 800108e:	f7ff fd5f 	bl	8000b50 <RCC_APB2PeriphClockCmd>
 8001092:	4845      	ldr	r0, [pc, #276]	@ (80011a8 <uart_init+0x208>)
 8001094:	2207      	movs	r2, #7
 8001096:	2106      	movs	r1, #6
 8001098:	f7ff fcdc 	bl	8000a54 <GPIO_PinAFConfig>
 800109c:	2207      	movs	r2, #7
 800109e:	4611      	mov	r1, r2
 80010a0:	4841      	ldr	r0, [pc, #260]	@ (80011a8 <uart_init+0x208>)
 80010a2:	f7ff fcd7 	bl	8000a54 <GPIO_PinAFConfig>
 80010a6:	4b3a      	ldr	r3, [pc, #232]	@ (8001190 <uart_init+0x1f0>)
 80010a8:	483f      	ldr	r0, [pc, #252]	@ (80011a8 <uart_init+0x208>)
 80010aa:	22c0      	movs	r2, #192	@ 0xc0
 80010ac:	a904      	add	r1, sp, #16
 80010ae:	e9cd 2304 	strd	r2, r3, [sp, #16]
 80010b2:	f7ff fc79 	bl	80009a8 <GPIO_Init>
 80010b6:	2300      	movs	r3, #0
 80010b8:	f44f 2240 	mov.w	r2, #786432	@ 0xc0000
 80010bc:	483b      	ldr	r0, [pc, #236]	@ (80011ac <uart_init+0x20c>)
 80010be:	9506      	str	r5, [sp, #24]
 80010c0:	a906      	add	r1, sp, #24
 80010c2:	e9cd 3207 	strd	r3, r2, [sp, #28]
 80010c6:	f8ad 3024 	strh.w	r3, [sp, #36]	@ 0x24
 80010ca:	f7ff fd6f 	bl	8000bac <USART_Init>
 80010ce:	b324      	cbz	r4, 800111a <uart_init+0x17a>
 80010d0:	4836      	ldr	r0, [pc, #216]	@ (80011ac <uart_init+0x20c>)
 80010d2:	2101      	movs	r1, #1
 80010d4:	f7ff fdca 	bl	8000c6c <USART_Cmd>
 80010d8:	4b35      	ldr	r3, [pc, #212]	@ (80011b0 <uart_init+0x210>)
 80010da:	e7a0      	b.n	800101e <uart_init+0x7e>
 80010dc:	2101      	movs	r1, #1
 80010de:	4608      	mov	r0, r1
 80010e0:	f7ff fd12 	bl	8000b08 <RCC_AHB1PeriphClockCmd>
 80010e4:	f44f 4500 	mov.w	r5, #32768	@ 0x8000
 80010e8:	4828      	ldr	r0, [pc, #160]	@ (800118c <uart_init+0x1ec>)
 80010ea:	2401      	movs	r4, #1
 80010ec:	a904      	add	r1, sp, #16
 80010ee:	e9cd 5404 	strd	r5, r4, [sp, #16]
 80010f2:	f7ff fc59 	bl	80009a8 <GPIO_Init>
 80010f6:	4629      	mov	r1, r5
 80010f8:	4824      	ldr	r0, [pc, #144]	@ (800118c <uart_init+0x1ec>)
 80010fa:	f7ff fca5 	bl	8000a48 <GPIO_SetBits>
 80010fe:	2064      	movs	r0, #100	@ 0x64
 8001100:	f7ff fbf0 	bl	80008e4 <delay_ms>
 8001104:	492b      	ldr	r1, [pc, #172]	@ (80011b4 <uart_init+0x214>)
 8001106:	9100      	str	r1, [sp, #0]
 8001108:	4b2b      	ldr	r3, [pc, #172]	@ (80011b8 <uart_init+0x218>)
 800110a:	4a2c      	ldr	r2, [pc, #176]	@ (80011bc <uart_init+0x21c>)
 800110c:	482c      	ldr	r0, [pc, #176]	@ (80011c0 <uart_init+0x220>)
 800110e:	4621      	mov	r1, r4
 8001110:	f001 fd10 	bl	8002b34 <USBD_Init>
 8001114:	2000      	movs	r0, #0
 8001116:	b00b      	add	sp, #44	@ 0x2c
 8001118:	bd30      	pop	{r4, r5, pc}
 800111a:	4824      	ldr	r0, [pc, #144]	@ (80011ac <uart_init+0x20c>)
 800111c:	2201      	movs	r2, #1
 800111e:	f240 5125 	movw	r1, #1317	@ 0x525
 8001122:	f7ff fdb7 	bl	8000c94 <USART_ITConfig>
 8001126:	4b27      	ldr	r3, [pc, #156]	@ (80011c4 <uart_init+0x224>)
 8001128:	9303      	str	r3, [sp, #12]
 800112a:	a803      	add	r0, sp, #12
 800112c:	f7ff fb4e 	bl	80007cc <NVIC_Init>
 8001130:	4b1f      	ldr	r3, [pc, #124]	@ (80011b0 <uart_init+0x210>)
 8001132:	f8a3 4080 	strh.w	r4, [r3, #128]	@ 0x80
 8001136:	f8a3 4082 	strh.w	r4, [r3, #130]	@ 0x82
 800113a:	f8a3 4084 	strh.w	r4, [r3, #132]	@ 0x84
 800113e:	e7c7      	b.n	80010d0 <uart_init+0x130>
 8001140:	4817      	ldr	r0, [pc, #92]	@ (80011a0 <uart_init+0x200>)
 8001142:	2201      	movs	r2, #1
 8001144:	f240 5125 	movw	r1, #1317	@ 0x525
 8001148:	f7ff fda4 	bl	8000c94 <USART_ITConfig>
 800114c:	4b1e      	ldr	r3, [pc, #120]	@ (80011c8 <uart_init+0x228>)
 800114e:	9303      	str	r3, [sp, #12]
 8001150:	a803      	add	r0, sp, #12
 8001152:	f7ff fb3b 	bl	80007cc <NVIC_Init>
 8001156:	4b16      	ldr	r3, [pc, #88]	@ (80011b0 <uart_init+0x210>)
 8001158:	f8a3 4110 	strh.w	r4, [r3, #272]	@ 0x110
 800115c:	f8a3 4112 	strh.w	r4, [r3, #274]	@ 0x112
 8001160:	f8a3 4114 	strh.w	r4, [r3, #276]	@ 0x114
 8001164:	e787      	b.n	8001076 <uart_init+0xd6>
 8001166:	480c      	ldr	r0, [pc, #48]	@ (8001198 <uart_init+0x1f8>)
 8001168:	2201      	movs	r2, #1
 800116a:	f240 5125 	movw	r1, #1317	@ 0x525
 800116e:	f7ff fd91 	bl	8000c94 <USART_ITConfig>
 8001172:	4b16      	ldr	r3, [pc, #88]	@ (80011cc <uart_init+0x22c>)
 8001174:	9303      	str	r3, [sp, #12]
 8001176:	a803      	add	r0, sp, #12
 8001178:	f7ff fb28 	bl	80007cc <NVIC_Init>
 800117c:	4b0c      	ldr	r3, [pc, #48]	@ (80011b0 <uart_init+0x210>)
 800117e:	f8a3 41a0 	strh.w	r4, [r3, #416]	@ 0x1a0
 8001182:	f8a3 41a2 	strh.w	r4, [r3, #418]	@ 0x1a2
 8001186:	f8a3 41a4 	strh.w	r4, [r3, #420]	@ 0x1a4
 800118a:	e743      	b.n	8001014 <uart_init+0x74>
 800118c:	40020000 	.word	0x40020000
 8001190:	01000202 	.word	0x01000202
 8001194:	40020800 	.word	0x40020800
 8001198:	40011400 	.word	0x40011400
 800119c:	20000260 	.word	0x20000260
 80011a0:	40004400 	.word	0x40004400
 80011a4:	200001d0 	.word	0x200001d0
 80011a8:	40020400 	.word	0x40020400
 80011ac:	40011000 	.word	0x40011000
 80011b0:	20000140 	.word	0x20000140
 80011b4:	2000011c 	.word	0x2000011c
 80011b8:	20000028 	.word	0x20000028
 80011bc:	20000100 	.word	0x20000100
 80011c0:	200002f0 	.word	0x200002f0
 80011c4:	01000025 	.word	0x01000025
 80011c8:	01000026 	.word	0x01000026
 80011cc:	01000047 	.word	0x01000047

080011d0 <uart_rxsize>:
 80011d0:	b508      	push	{r3, lr}
 80011d2:	2806      	cmp	r0, #6
 80011d4:	d805      	bhi.n	80011e2 <uart_rxsize+0x12>
 80011d6:	e8df f000 	tbb	[pc, r0]
 80011da:	1f25      	.short	0x1f25
 80011dc:	04040412 	.word	0x04040412
 80011e0:	06          	.byte	0x06
 80011e1:	00          	.byte	0x00
 80011e2:	2000      	movs	r0, #0
 80011e4:	bd08      	pop	{r3, pc}
 80011e6:	4811      	ldr	r0, [pc, #68]	@ (800122c <uart_rxsize+0x5c>)
 80011e8:	2120      	movs	r1, #32
 80011ea:	f7ff fd6d 	bl	8000cc8 <USART_GetFlagStatus>
 80011ee:	4b10      	ldr	r3, [pc, #64]	@ (8001230 <uart_rxsize+0x60>)
 80011f0:	f893 208c 	ldrb.w	r2, [r3, #140]	@ 0x8c
 80011f4:	b162      	cbz	r2, 8001210 <uart_rxsize+0x40>
 80011f6:	3800      	subs	r0, #0
 80011f8:	bf18      	it	ne
 80011fa:	2001      	movne	r0, #1
 80011fc:	bd08      	pop	{r3, pc}
 80011fe:	480d      	ldr	r0, [pc, #52]	@ (8001234 <uart_rxsize+0x64>)
 8001200:	2120      	movs	r1, #32
 8001202:	f7ff fd61 	bl	8000cc8 <USART_GetFlagStatus>
 8001206:	4b0c      	ldr	r3, [pc, #48]	@ (8001238 <uart_rxsize+0x68>)
 8001208:	f893 208c 	ldrb.w	r2, [r3, #140]	@ 0x8c
 800120c:	2a00      	cmp	r2, #0
 800120e:	d1f2      	bne.n	80011f6 <uart_rxsize+0x26>
 8001210:	f8b3 0084 	ldrh.w	r0, [r3, #132]	@ 0x84
 8001214:	b280      	uxth	r0, r0
 8001216:	bd08      	pop	{r3, pc}
 8001218:	4808      	ldr	r0, [pc, #32]	@ (800123c <uart_rxsize+0x6c>)
 800121a:	2120      	movs	r1, #32
 800121c:	f7ff fd54 	bl	8000cc8 <USART_GetFlagStatus>
 8001220:	4b07      	ldr	r3, [pc, #28]	@ (8001240 <uart_rxsize+0x70>)
 8001222:	e7e5      	b.n	80011f0 <uart_rxsize+0x20>
 8001224:	f001 fb44 	bl	80028b0 <VCP_kbhit>
 8001228:	bd08      	pop	{r3, pc}
 800122a:	bf00      	nop
 800122c:	40011400 	.word	0x40011400
 8001230:	20000260 	.word	0x20000260
 8001234:	40004400 	.word	0x40004400
 8001238:	200001d0 	.word	0x200001d0
 800123c:	40011000 	.word	0x40011000
 8001240:	20000140 	.word	0x20000140

08001244 <uart_tx>:
 8001244:	b510      	push	{r4, lr}
 8001246:	460c      	mov	r4, r1
 8001248:	2806      	cmp	r0, #6
 800124a:	d829      	bhi.n	80012a0 <uart_tx+0x5c>
 800124c:	e8df f000 	tbb	[pc, r0]
 8001250:	281c0429 	.word	0x281c0429
 8001254:	2828      	.short	0x2828
 8001256:	10          	.byte	0x10
 8001257:	00          	.byte	0x00
 8001258:	4814      	ldr	r0, [pc, #80]	@ (80012ac <uart_tx+0x68>)
 800125a:	2180      	movs	r1, #128	@ 0x80
 800125c:	f7ff fd34 	bl	8000cc8 <USART_GetFlagStatus>
 8001260:	2800      	cmp	r0, #0
 8001262:	d0f9      	beq.n	8001258 <uart_tx+0x14>
 8001264:	4621      	mov	r1, r4
 8001266:	4811      	ldr	r0, [pc, #68]	@ (80012ac <uart_tx+0x68>)
 8001268:	e8bd 4010 	ldmia.w	sp!, {r4, lr}
 800126c:	f7ff bd0a 	b.w	8000c84 <USART_SendData>
 8001270:	480f      	ldr	r0, [pc, #60]	@ (80012b0 <uart_tx+0x6c>)
 8001272:	2180      	movs	r1, #128	@ 0x80
 8001274:	f7ff fd28 	bl	8000cc8 <USART_GetFlagStatus>
 8001278:	2800      	cmp	r0, #0
 800127a:	d0f9      	beq.n	8001270 <uart_tx+0x2c>
 800127c:	4621      	mov	r1, r4
 800127e:	480c      	ldr	r0, [pc, #48]	@ (80012b0 <uart_tx+0x6c>)
 8001280:	e8bd 4010 	ldmia.w	sp!, {r4, lr}
 8001284:	f7ff bcfe 	b.w	8000c84 <USART_SendData>
 8001288:	480a      	ldr	r0, [pc, #40]	@ (80012b4 <uart_tx+0x70>)
 800128a:	2180      	movs	r1, #128	@ 0x80
 800128c:	f7ff fd1c 	bl	8000cc8 <USART_GetFlagStatus>
 8001290:	2800      	cmp	r0, #0
 8001292:	d0f9      	beq.n	8001288 <uart_tx+0x44>
 8001294:	4621      	mov	r1, r4
 8001296:	4807      	ldr	r0, [pc, #28]	@ (80012b4 <uart_tx+0x70>)
 8001298:	e8bd 4010 	ldmia.w	sp!, {r4, lr}
 800129c:	f7ff bcf2 	b.w	8000c84 <USART_SendData>
 80012a0:	bd10      	pop	{r4, pc}
 80012a2:	e8bd 4010 	ldmia.w	sp!, {r4, lr}
 80012a6:	4608      	mov	r0, r1
 80012a8:	f001 baf0 	b.w	800288c <VCP_putchar>
 80012ac:	40011000 	.word	0x40011000
 80012b0:	40011400 	.word	0x40011400
 80012b4:	40004400 	.word	0x40004400

080012b8 <uart_rx>:
 80012b8:	b530      	push	{r4, r5, lr}
 80012ba:	b083      	sub	sp, #12
 80012bc:	2806      	cmp	r0, #6
 80012be:	d80f      	bhi.n	80012e0 <uart_rx+0x28>
 80012c0:	e8df f000 	tbb	[pc, r0]
 80012c4:	0e3e6a04 	.word	0x0e3e6a04
 80012c8:	0e0e      	.short	0x0e0e
 80012ca:	11          	.byte	0x11
 80012cb:	00          	.byte	0x00
 80012cc:	f10d 0007 	add.w	r0, sp, #7
 80012d0:	f001 fafa 	bl	80028c8 <VCP_getchar>
 80012d4:	2800      	cmp	r0, #0
 80012d6:	d0f9      	beq.n	80012cc <uart_rx+0x14>
 80012d8:	f89d 0007 	ldrb.w	r0, [sp, #7]
 80012dc:	b003      	add	sp, #12
 80012de:	bd30      	pop	{r4, r5, pc}
 80012e0:	2000      	movs	r0, #0
 80012e2:	b003      	add	sp, #12
 80012e4:	bd30      	pop	{r4, r5, pc}
 80012e6:	4c55      	ldr	r4, [pc, #340]	@ (800143c <uart_rx+0x184>)
 80012e8:	f894 51ac 	ldrb.w	r5, [r4, #428]	@ 0x1ac
 80012ec:	2d00      	cmp	r5, #0
 80012ee:	f040 8081 	bne.w	80013f4 <uart_rx+0x13c>
 80012f2:	f8b4 21a0 	ldrh.w	r2, [r4, #416]	@ 0x1a0
 80012f6:	f8b4 31a2 	ldrh.w	r3, [r4, #418]	@ 0x1a2
 80012fa:	b292      	uxth	r2, r2
 80012fc:	b29b      	uxth	r3, r3
 80012fe:	429a      	cmp	r2, r3
 8001300:	d0f7      	beq.n	80012f2 <uart_rx+0x3a>
 8001302:	f7ff fb03 	bl	800090c <_di>
 8001306:	f8b4 21a0 	ldrh.w	r2, [r4, #416]	@ 0x1a0
 800130a:	f8b4 31a2 	ldrh.w	r3, [r4, #418]	@ 0x1a2
 800130e:	b292      	uxth	r2, r2
 8001310:	b29b      	uxth	r3, r3
 8001312:	429a      	cmp	r2, r3
 8001314:	d069      	beq.n	80013ea <uart_rx+0x132>
 8001316:	f8b4 31a0 	ldrh.w	r3, [r4, #416]	@ 0x1a0
 800131a:	fa14 f383 	uxtah	r3, r4, r3
 800131e:	f893 5120 	ldrb.w	r5, [r3, #288]	@ 0x120
 8001322:	f8b4 31a0 	ldrh.w	r3, [r4, #416]	@ 0x1a0
 8001326:	3301      	adds	r3, #1
 8001328:	f003 037f 	and.w	r3, r3, #127	@ 0x7f
 800132c:	f8a4 31a0 	strh.w	r3, [r4, #416]	@ 0x1a0
 8001330:	f8b4 31a4 	ldrh.w	r3, [r4, #420]	@ 0x1a4
 8001334:	3b01      	subs	r3, #1
 8001336:	b29b      	uxth	r3, r3
 8001338:	b2ed      	uxtb	r5, r5
 800133a:	f8a4 31a4 	strh.w	r3, [r4, #420]	@ 0x1a4
 800133e:	e054      	b.n	80013ea <uart_rx+0x132>
 8001340:	4c3e      	ldr	r4, [pc, #248]	@ (800143c <uart_rx+0x184>)
 8001342:	f894 511c 	ldrb.w	r5, [r4, #284]	@ 0x11c
 8001346:	2d00      	cmp	r5, #0
 8001348:	d16c      	bne.n	8001424 <uart_rx+0x16c>
 800134a:	f8b4 2110 	ldrh.w	r2, [r4, #272]	@ 0x110
 800134e:	f8b4 3112 	ldrh.w	r3, [r4, #274]	@ 0x112
 8001352:	b292      	uxth	r2, r2
 8001354:	b29b      	uxth	r3, r3
 8001356:	429a      	cmp	r2, r3
 8001358:	d0f7      	beq.n	800134a <uart_rx+0x92>
 800135a:	f7ff fad7 	bl	800090c <_di>
 800135e:	f8b4 2110 	ldrh.w	r2, [r4, #272]	@ 0x110
 8001362:	f8b4 3112 	ldrh.w	r3, [r4, #274]	@ 0x112
 8001366:	b292      	uxth	r2, r2
 8001368:	b29b      	uxth	r3, r3
 800136a:	429a      	cmp	r2, r3
 800136c:	d03d      	beq.n	80013ea <uart_rx+0x132>
 800136e:	f8b4 3110 	ldrh.w	r3, [r4, #272]	@ 0x110
 8001372:	fa14 f383 	uxtah	r3, r4, r3
 8001376:	f893 5090 	ldrb.w	r5, [r3, #144]	@ 0x90
 800137a:	f8b4 3110 	ldrh.w	r3, [r4, #272]	@ 0x110
 800137e:	3301      	adds	r3, #1
 8001380:	f003 037f 	and.w	r3, r3, #127	@ 0x7f
 8001384:	f8a4 3110 	strh.w	r3, [r4, #272]	@ 0x110
 8001388:	f8b4 3114 	ldrh.w	r3, [r4, #276]	@ 0x114
 800138c:	3b01      	subs	r3, #1
 800138e:	b29b      	uxth	r3, r3
 8001390:	b2ed      	uxtb	r5, r5
 8001392:	f8a4 3114 	strh.w	r3, [r4, #276]	@ 0x114
 8001396:	e028      	b.n	80013ea <uart_rx+0x132>
 8001398:	4c28      	ldr	r4, [pc, #160]	@ (800143c <uart_rx+0x184>)
 800139a:	f894 508c 	ldrb.w	r5, [r4, #140]	@ 0x8c
 800139e:	2d00      	cmp	r5, #0
 80013a0:	d134      	bne.n	800140c <uart_rx+0x154>
 80013a2:	f8b4 2080 	ldrh.w	r2, [r4, #128]	@ 0x80
 80013a6:	f8b4 3082 	ldrh.w	r3, [r4, #130]	@ 0x82
 80013aa:	b292      	uxth	r2, r2
 80013ac:	b29b      	uxth	r3, r3
 80013ae:	429a      	cmp	r2, r3
 80013b0:	d0f7      	beq.n	80013a2 <uart_rx+0xea>
 80013b2:	f7ff faab 	bl	800090c <_di>
 80013b6:	f8b4 2080 	ldrh.w	r2, [r4, #128]	@ 0x80
 80013ba:	f8b4 3082 	ldrh.w	r3, [r4, #130]	@ 0x82
 80013be:	b292      	uxth	r2, r2
 80013c0:	b29b      	uxth	r3, r3
 80013c2:	429a      	cmp	r2, r3
 80013c4:	d011      	beq.n	80013ea <uart_rx+0x132>
 80013c6:	f8b4 3080 	ldrh.w	r3, [r4, #128]	@ 0x80
 80013ca:	b29b      	uxth	r3, r3
 80013cc:	5ce5      	ldrb	r5, [r4, r3]
 80013ce:	f8b4 3080 	ldrh.w	r3, [r4, #128]	@ 0x80
 80013d2:	3301      	adds	r3, #1
 80013d4:	f003 037f 	and.w	r3, r3, #127	@ 0x7f
 80013d8:	f8a4 3080 	strh.w	r3, [r4, #128]	@ 0x80
 80013dc:	f8b4 3084 	ldrh.w	r3, [r4, #132]	@ 0x84
 80013e0:	3b01      	subs	r3, #1
 80013e2:	b29b      	uxth	r3, r3
 80013e4:	b2ed      	uxtb	r5, r5
 80013e6:	f8a4 3084 	strh.w	r3, [r4, #132]	@ 0x84
 80013ea:	f88d 5007 	strb.w	r5, [sp, #7]
 80013ee:	f7ff fa8f 	bl	8000910 <_ei>
 80013f2:	e771      	b.n	80012d8 <uart_rx+0x20>
 80013f4:	4c12      	ldr	r4, [pc, #72]	@ (8001440 <uart_rx+0x188>)
 80013f6:	2120      	movs	r1, #32
 80013f8:	4620      	mov	r0, r4
 80013fa:	f7ff fc65 	bl	8000cc8 <USART_GetFlagStatus>
 80013fe:	2800      	cmp	r0, #0
 8001400:	d0f9      	beq.n	80013f6 <uart_rx+0x13e>
 8001402:	480f      	ldr	r0, [pc, #60]	@ (8001440 <uart_rx+0x188>)
 8001404:	f7ff fc42 	bl	8000c8c <USART_ReceiveData>
 8001408:	b2c0      	uxtb	r0, r0
 800140a:	e767      	b.n	80012dc <uart_rx+0x24>
 800140c:	4c0d      	ldr	r4, [pc, #52]	@ (8001444 <uart_rx+0x18c>)
 800140e:	2120      	movs	r1, #32
 8001410:	4620      	mov	r0, r4
 8001412:	f7ff fc59 	bl	8000cc8 <USART_GetFlagStatus>
 8001416:	2800      	cmp	r0, #0
 8001418:	d0f9      	beq.n	800140e <uart_rx+0x156>
 800141a:	480a      	ldr	r0, [pc, #40]	@ (8001444 <uart_rx+0x18c>)
 800141c:	f7ff fc36 	bl	8000c8c <USART_ReceiveData>
 8001420:	b2c0      	uxtb	r0, r0
 8001422:	e75b      	b.n	80012dc <uart_rx+0x24>
 8001424:	4c08      	ldr	r4, [pc, #32]	@ (8001448 <uart_rx+0x190>)
 8001426:	2120      	movs	r1, #32
 8001428:	4620      	mov	r0, r4
 800142a:	f7ff fc4d 	bl	8000cc8 <USART_GetFlagStatus>
 800142e:	2800      	cmp	r0, #0
 8001430:	d0f9      	beq.n	8001426 <uart_rx+0x16e>
 8001432:	4805      	ldr	r0, [pc, #20]	@ (8001448 <uart_rx+0x190>)
 8001434:	f7ff fc2a 	bl	8000c8c <USART_ReceiveData>
 8001438:	b2c0      	uxtb	r0, r0
 800143a:	e74f      	b.n	80012dc <uart_rx+0x24>
 800143c:	20000140 	.word	0x20000140
 8001440:	40011400 	.word	0x40011400
 8001444:	40011000 	.word	0x40011000
 8001448:	40004400 	.word	0x40004400

0800144c <USB_OTG_BSP_Init>:
 800144c:	b530      	push	{r4, r5, lr}
 800144e:	2101      	movs	r1, #1
 8001450:	4c20      	ldr	r4, [pc, #128]	@ (80014d4 <USB_OTG_BSP_Init+0x88>)
 8001452:	b083      	sub	sp, #12
 8001454:	4608      	mov	r0, r1
 8001456:	f7ff fb57 	bl	8000b08 <RCC_AHB1PeriphClockCmd>
 800145a:	f240 2302 	movw	r3, #514	@ 0x202
 800145e:	4669      	mov	r1, sp
 8001460:	4620      	mov	r0, r4
 8001462:	f44f 52d8 	mov.w	r2, #6912	@ 0x1b00
 8001466:	e9cd 2300 	strd	r2, r3, [sp]
 800146a:	f7ff fa9d 	bl	80009a8 <GPIO_Init>
 800146e:	4620      	mov	r0, r4
 8001470:	220a      	movs	r2, #10
 8001472:	2108      	movs	r1, #8
 8001474:	f7ff faee 	bl	8000a54 <GPIO_PinAFConfig>
 8001478:	4620      	mov	r0, r4
 800147a:	220a      	movs	r2, #10
 800147c:	2109      	movs	r1, #9
 800147e:	f7ff fae9 	bl	8000a54 <GPIO_PinAFConfig>
 8001482:	4620      	mov	r0, r4
 8001484:	220a      	movs	r2, #10
 8001486:	210b      	movs	r1, #11
 8001488:	f7ff fae4 	bl	8000a54 <GPIO_PinAFConfig>
 800148c:	220a      	movs	r2, #10
 800148e:	4620      	mov	r0, r4
 8001490:	210c      	movs	r1, #12
 8001492:	f7ff fadf 	bl	8000a54 <GPIO_PinAFConfig>
 8001496:	f44f 6380 	mov.w	r3, #1024	@ 0x400
 800149a:	2501      	movs	r5, #1
 800149c:	4669      	mov	r1, sp
 800149e:	4620      	mov	r0, r4
 80014a0:	9300      	str	r3, [sp, #0]
 80014a2:	f44f 7381 	mov.w	r3, #258	@ 0x102
 80014a6:	f8ad 3005 	strh.w	r3, [sp, #5]
 80014aa:	f88d 5007 	strb.w	r5, [sp, #7]
 80014ae:	f7ff fa7b 	bl	80009a8 <GPIO_Init>
 80014b2:	220a      	movs	r2, #10
 80014b4:	4611      	mov	r1, r2
 80014b6:	4620      	mov	r0, r4
 80014b8:	f7ff facc 	bl	8000a54 <GPIO_PinAFConfig>
 80014bc:	4629      	mov	r1, r5
 80014be:	2080      	movs	r0, #128	@ 0x80
 80014c0:	f7ff fb2e 	bl	8000b20 <RCC_AHB2PeriphClockCmd>
 80014c4:	4629      	mov	r1, r5
 80014c6:	f04f 5080 	mov.w	r0, #268435456	@ 0x10000000
 80014ca:	f7ff fb4d 	bl	8000b68 <RCC_APB1PeriphResetCmd>
 80014ce:	b003      	add	sp, #12
 80014d0:	bd30      	pop	{r4, r5, pc}
 80014d2:	bf00      	nop
 80014d4:	40020000 	.word	0x40020000

080014d8 <USB_OTG_BSP_EnableInterrupt>:
 80014d8:	b500      	push	{lr}
 80014da:	f44f 60c0 	mov.w	r0, #1536	@ 0x600
 80014de:	b083      	sub	sp, #12
 80014e0:	f7ff f96a 	bl	80007b8 <NVIC_PriorityGroupConfig>
 80014e4:	4b03      	ldr	r3, [pc, #12]	@ (80014f4 <USB_OTG_BSP_EnableInterrupt+0x1c>)
 80014e6:	9301      	str	r3, [sp, #4]
 80014e8:	a801      	add	r0, sp, #4
 80014ea:	f7ff f96f 	bl	80007cc <NVIC_Init>
 80014ee:	b003      	add	sp, #12
 80014f0:	f85d fb04 	ldr.w	pc, [sp], #4
 80014f4:	01030143 	.word	0x01030143

080014f8 <USB_OTG_BSP_uDelay>:
 80014f8:	4770      	bx	lr
 80014fa:	bf00      	nop

080014fc <USB_OTG_BSP_mDelay>:
 80014fc:	4770      	bx	lr
 80014fe:	bf00      	nop

08001500 <OTG_FS_IRQHandler>:
 8001500:	4801      	ldr	r0, [pc, #4]	@ (8001508 <OTG_FS_IRQHandler+0x8>)
 8001502:	f000 bd77 	b.w	8001ff4 <USBD_OTG_ISR_Handler>
 8001506:	bf00      	nop
 8001508:	200002f0 	.word	0x200002f0

0800150c <USB_OTG_CoreReset.isra.0>:
 800150c:	b530      	push	{r4, r5, lr}
 800150e:	b083      	sub	sp, #12
 8001510:	2300      	movs	r3, #0
 8001512:	4c12      	ldr	r4, [pc, #72]	@ (800155c <USB_OTG_CoreReset.isra.0+0x50>)
 8001514:	9301      	str	r3, [sp, #4]
 8001516:	4605      	mov	r5, r0
 8001518:	2003      	movs	r0, #3
 800151a:	f7ff ffed 	bl	80014f8 <USB_OTG_BSP_uDelay>
 800151e:	68eb      	ldr	r3, [r5, #12]
 8001520:	3c01      	subs	r4, #1
 8001522:	691a      	ldr	r2, [r3, #16]
 8001524:	9201      	str	r2, [sp, #4]
 8001526:	d016      	beq.n	8001556 <USB_OTG_CoreReset.isra.0+0x4a>
 8001528:	9a01      	ldr	r2, [sp, #4]
 800152a:	2a00      	cmp	r2, #0
 800152c:	daf4      	bge.n	8001518 <USB_OTG_CoreReset.isra.0+0xc>
 800152e:	9901      	ldr	r1, [sp, #4]
 8001530:	4a0a      	ldr	r2, [pc, #40]	@ (800155c <USB_OTG_CoreReset.isra.0+0x50>)
 8001532:	f041 0101 	orr.w	r1, r1, #1
 8001536:	9101      	str	r1, [sp, #4]
 8001538:	9901      	ldr	r1, [sp, #4]
 800153a:	6119      	str	r1, [r3, #16]
 800153c:	6919      	ldr	r1, [r3, #16]
 800153e:	9101      	str	r1, [sp, #4]
 8001540:	3a01      	subs	r2, #1
 8001542:	d002      	beq.n	800154a <USB_OTG_CoreReset.isra.0+0x3e>
 8001544:	9901      	ldr	r1, [sp, #4]
 8001546:	07c9      	lsls	r1, r1, #31
 8001548:	d4f8      	bmi.n	800153c <USB_OTG_CoreReset.isra.0+0x30>
 800154a:	2003      	movs	r0, #3
 800154c:	b003      	add	sp, #12
 800154e:	e8bd 4030 	ldmia.w	sp!, {r4, r5, lr}
 8001552:	f7ff bfd1 	b.w	80014f8 <USB_OTG_BSP_uDelay>
 8001556:	b003      	add	sp, #12
 8001558:	bd30      	pop	{r4, r5, pc}
 800155a:	bf00      	nop
 800155c:	00030d41 	.word	0x00030d41

08001560 <USB_OTG_WritePacket>:
 8001560:	b430      	push	{r4, r5}
 8001562:	78c4      	ldrb	r4, [r0, #3]
 8001564:	b96c      	cbnz	r4, 8001582 <USB_OTG_WritePacket+0x22>
 8001566:	eb00 0082 	add.w	r0, r0, r2, lsl #2
 800156a:	3303      	adds	r3, #3
 800156c:	109a      	asrs	r2, r3, #2
 800156e:	f8d0 50d0 	ldr.w	r5, [r0, #208]	@ 0xd0
 8001572:	d006      	beq.n	8001582 <USB_OTG_WritePacket+0x22>
 8001574:	4623      	mov	r3, r4
 8001576:	3301      	adds	r3, #1
 8001578:	f851 0b04 	ldr.w	r0, [r1], #4
 800157c:	6028      	str	r0, [r5, #0]
 800157e:	429a      	cmp	r2, r3
 8001580:	d1f9      	bne.n	8001576 <USB_OTG_WritePacket+0x16>
 8001582:	2000      	movs	r0, #0
 8001584:	bc30      	pop	{r4, r5}
 8001586:	4770      	bx	lr

08001588 <USB_OTG_ReadPacket>:
 8001588:	b510      	push	{r4, lr}
 800158a:	f102 0e03 	add.w	lr, r2, #3
 800158e:	ea5f 0eae 	movs.w	lr, lr, asr #2
 8001592:	f8d0 40d0 	ldr.w	r4, [r0, #208]	@ 0xd0
 8001596:	d00a      	beq.n	80015ae <USB_OTG_ReadPacket+0x26>
 8001598:	468c      	mov	ip, r1
 800159a:	2300      	movs	r3, #0
 800159c:	3301      	adds	r3, #1
 800159e:	6822      	ldr	r2, [r4, #0]
 80015a0:	f84c 2b04 	str.w	r2, [ip], #4
 80015a4:	459e      	cmp	lr, r3
 80015a6:	d1f9      	bne.n	800159c <USB_OTG_ReadPacket+0x14>
 80015a8:	eb01 008e 	add.w	r0, r1, lr, lsl #2
 80015ac:	bd10      	pop	{r4, pc}
 80015ae:	4608      	mov	r0, r1
 80015b0:	bd10      	pop	{r4, pc}
 80015b2:	bf00      	nop

080015b4 <USB_OTG_SelectCore>:
 80015b4:	2201      	movs	r2, #1
 80015b6:	2340      	movs	r3, #64	@ 0x40
 80015b8:	4291      	cmp	r1, r2
 80015ba:	e92d 41f0 	stmdb	sp!, {r4, r5, r6, r7, r8, lr}
 80015be:	8042      	strh	r2, [r0, #2]
 80015c0:	8083      	strh	r3, [r0, #4]
 80015c2:	d057      	beq.n	8001674 <USB_OTG_SelectCore+0xc0>
 80015c4:	2900      	cmp	r1, #0
 80015c6:	d041      	beq.n	800164c <USB_OTG_SelectCore+0x98>
 80015c8:	7843      	ldrb	r3, [r0, #1]
 80015ca:	7806      	ldrb	r6, [r0, #0]
 80015cc:	2200      	movs	r2, #0
 80015ce:	f44f 6100 	mov.w	r1, #2048	@ 0x800
 80015d2:	e9c0 2103 	strd	r2, r1, [r0, #12]
 80015d6:	2b00      	cmp	r3, #0
 80015d8:	d061      	beq.n	800169e <USB_OTG_SelectCore+0xea>
 80015da:	469e      	mov	lr, r3
 80015dc:	f44f 6560 	mov.w	r5, #3584	@ 0xe00
 80015e0:	f44f 6788 	mov.w	r7, #1088	@ 0x440
 80015e4:	f44f 6880 	mov.w	r8, #1024	@ 0x400
 80015e8:	f502 6310 	add.w	r3, r2, #2304	@ 0x900
 80015ec:	f100 0c14 	add.w	ip, r0, #20
 80015f0:	2100      	movs	r1, #0
 80015f2:	f84c 3f04 	str.w	r3, [ip, #4]!
 80015f6:	3101      	adds	r1, #1
 80015f8:	f503 7400 	add.w	r4, r3, #512	@ 0x200
 80015fc:	4571      	cmp	r1, lr
 80015fe:	f8cc 403c 	str.w	r4, [ip, #60]	@ 0x3c
 8001602:	f103 0320 	add.w	r3, r3, #32
 8001606:	d3f4      	bcc.n	80015f2 <USB_OTG_SelectCore+0x3e>
 8001608:	f8c0 8014 	str.w	r8, [r0, #20]
 800160c:	f8c0 70cc 	str.w	r7, [r0, #204]	@ 0xcc
 8001610:	b1be      	cbz	r6, 8001642 <USB_OTG_SelectCore+0x8e>
 8001612:	f100 038c 	add.w	r3, r0, #140	@ 0x8c
 8001616:	f502 61a0 	add.w	r1, r2, #1280	@ 0x500
 800161a:	00b4      	lsls	r4, r6, #2
 800161c:	eb03 0c86 	add.w	ip, r3, r6, lsl #2
 8001620:	f843 1f04 	str.w	r1, [r3, #4]!
 8001624:	459c      	cmp	ip, r3
 8001626:	f101 0120 	add.w	r1, r1, #32
 800162a:	d1f9      	bne.n	8001620 <USB_OTG_SelectCore+0x6c>
 800162c:	f100 03cc 	add.w	r3, r0, #204	@ 0xcc
 8001630:	f502 5280 	add.w	r2, r2, #4096	@ 0x1000
 8001634:	1919      	adds	r1, r3, r4
 8001636:	f843 2f04 	str.w	r2, [r3, #4]!
 800163a:	4299      	cmp	r1, r3
 800163c:	f502 5280 	add.w	r2, r2, #4096	@ 0x1000
 8001640:	d1f9      	bne.n	8001636 <USB_OTG_SelectCore+0x82>
 8001642:	f8c0 510c 	str.w	r5, [r0, #268]	@ 0x10c
 8001646:	2000      	movs	r0, #0
 8001648:	e8bd 81f0 	ldmia.w	sp!, {r4, r5, r6, r7, r8, pc}
 800164c:	f44f 63a0 	mov.w	r3, #1280	@ 0x500
 8001650:	80c3      	strh	r3, [r0, #6]
 8001652:	4b17      	ldr	r3, [pc, #92]	@ (80016b0 <USB_OTG_SelectCore+0xfc>)
 8001654:	72c1      	strb	r1, [r0, #11]
 8001656:	f240 620c 	movw	r2, #1548	@ 0x60c
 800165a:	4d16      	ldr	r5, [pc, #88]	@ (80016b4 <USB_OTG_SelectCore+0x100>)
 800165c:	4f16      	ldr	r7, [pc, #88]	@ (80016b8 <USB_OTG_SelectCore+0x104>)
 800165e:	f8df 806c 	ldr.w	r8, [pc, #108]	@ 80016cc <USB_OTG_SelectCore+0x118>
 8001662:	4916      	ldr	r1, [pc, #88]	@ (80016bc <USB_OTG_SelectCore+0x108>)
 8001664:	8002      	strh	r2, [r0, #0]
 8001666:	f04f 0e06 	mov.w	lr, #6
 800166a:	260c      	movs	r6, #12
 800166c:	461a      	mov	r2, r3
 800166e:	e9c0 3103 	strd	r3, r1, [r0, #12]
 8001672:	e7b9      	b.n	80015e8 <USB_OTG_SelectCore+0x34>
 8001674:	2302      	movs	r3, #2
 8001676:	f44f 72a0 	mov.w	r2, #320	@ 0x140
 800167a:	f44f 6481 	mov.w	r4, #1032	@ 0x408
 800167e:	7203      	strb	r3, [r0, #8]
 8001680:	f04f 43a0 	mov.w	r3, #1342177280	@ 0x50000000
 8001684:	72c1      	strb	r1, [r0, #11]
 8001686:	80c2      	strh	r2, [r0, #6]
 8001688:	4d0d      	ldr	r5, [pc, #52]	@ (80016c0 <USB_OTG_SelectCore+0x10c>)
 800168a:	4f0e      	ldr	r7, [pc, #56]	@ (80016c4 <USB_OTG_SelectCore+0x110>)
 800168c:	f8df 8040 	ldr.w	r8, [pc, #64]	@ 80016d0 <USB_OTG_SelectCore+0x11c>
 8001690:	490d      	ldr	r1, [pc, #52]	@ (80016c8 <USB_OTG_SelectCore+0x114>)
 8001692:	8004      	strh	r4, [r0, #0]
 8001694:	f04f 0e04 	mov.w	lr, #4
 8001698:	2608      	movs	r6, #8
 800169a:	461a      	mov	r2, r3
 800169c:	e7e7      	b.n	800166e <USB_OTG_SelectCore+0xba>
 800169e:	f44f 6560 	mov.w	r5, #3584	@ 0xe00
 80016a2:	f44f 6788 	mov.w	r7, #1088	@ 0x440
 80016a6:	461a      	mov	r2, r3
 80016a8:	f44f 6880 	mov.w	r8, #1024	@ 0x400
 80016ac:	e7ac      	b.n	8001608 <USB_OTG_SelectCore+0x54>
 80016ae:	bf00      	nop
 80016b0:	40040000 	.word	0x40040000
 80016b4:	40040e00 	.word	0x40040e00
 80016b8:	40040440 	.word	0x40040440
 80016bc:	40040800 	.word	0x40040800
 80016c0:	50000e00 	.word	0x50000e00
 80016c4:	50000440 	.word	0x50000440
 80016c8:	50000800 	.word	0x50000800
 80016cc:	40040400 	.word	0x40040400
 80016d0:	50000400 	.word	0x50000400

080016d4 <USB_OTG_CoreInit>:
 80016d4:	b538      	push	{r3, r4, r5, lr}
 80016d6:	7a03      	ldrb	r3, [r0, #8]
 80016d8:	68c2      	ldr	r2, [r0, #12]
 80016da:	2b01      	cmp	r3, #1
 80016dc:	4604      	mov	r4, r0
 80016de:	f04f 0500 	mov.w	r5, #0
 80016e2:	d11a      	bne.n	800171a <USB_OTG_CoreInit+0x46>
 80016e4:	6b95      	ldr	r5, [r2, #56]	@ 0x38
 80016e6:	7a41      	ldrb	r1, [r0, #9]
 80016e8:	f36f 4510 	bfc	r5, #16, #1
 80016ec:	b191      	cbz	r1, 8001714 <USB_OTG_CoreInit+0x40>
 80016ee:	f363 5514 	bfi	r5, r3, #20, #1
 80016f2:	6395      	str	r5, [r2, #56]	@ 0x38
 80016f4:	68d3      	ldr	r3, [r2, #12]
 80016f6:	f423 0394 	bic.w	r3, r3, #4849664	@ 0x4a0000
 80016fa:	f023 03d8 	bic.w	r3, r3, #216	@ 0xd8
 80016fe:	f043 0310 	orr.w	r3, r3, #16
 8001702:	60d3      	str	r3, [r2, #12]
 8001704:	4620      	mov	r0, r4
 8001706:	f7ff ff01 	bl	800150c <USB_OTG_CoreReset.isra.0>
 800170a:	78e3      	ldrb	r3, [r4, #3]
 800170c:	2b01      	cmp	r3, #1
 800170e:	d02c      	beq.n	800176a <USB_OTG_CoreInit+0x96>
 8001710:	2000      	movs	r0, #0
 8001712:	bd38      	pop	{r3, r4, r5, pc}
 8001714:	f3c5 5300 	ubfx	r3, r5, #20, #1
 8001718:	e7e9      	b.n	80016ee <USB_OTG_CoreInit+0x1a>
 800171a:	68d3      	ldr	r3, [r2, #12]
 800171c:	f043 0340 	orr.w	r3, r3, #64	@ 0x40
 8001720:	60d3      	str	r3, [r2, #12]
 8001722:	f7ff fef3 	bl	800150c <USB_OTG_CoreReset.isra.0>
 8001726:	7a23      	ldrb	r3, [r4, #8]
 8001728:	7a62      	ldrb	r2, [r4, #9]
 800172a:	68e1      	ldr	r1, [r4, #12]
 800172c:	f1a3 0303 	sub.w	r3, r3, #3
 8001730:	fab3 f383 	clz	r3, r3
 8001734:	095b      	lsrs	r3, r3, #5
 8001736:	3a00      	subs	r2, #0
 8001738:	ea4f 0343 	mov.w	r3, r3, lsl #1
 800173c:	bf18      	it	ne
 800173e:	2201      	movne	r2, #1
 8001740:	f043 030d 	orr.w	r3, r3, #13
 8001744:	ea43 1302 	orr.w	r3, r3, r2, lsl #4
 8001748:	f363 4517 	bfi	r5, r3, #16, #8
 800174c:	638d      	str	r5, [r1, #56]	@ 0x38
 800174e:	2014      	movs	r0, #20
 8001750:	f7ff fed4 	bl	80014fc <USB_OTG_BSP_mDelay>
 8001754:	7a21      	ldrb	r1, [r4, #8]
 8001756:	68e2      	ldr	r2, [r4, #12]
 8001758:	2903      	cmp	r1, #3
 800175a:	68d3      	ldr	r3, [r2, #12]
 800175c:	d012      	beq.n	8001784 <USB_OTG_CoreInit+0xb0>
 800175e:	60d3      	str	r3, [r2, #12]
 8001760:	78e3      	ldrb	r3, [r4, #3]
 8001762:	2b01      	cmp	r3, #1
 8001764:	d1d4      	bne.n	8001710 <USB_OTG_CoreInit+0x3c>
 8001766:	68e1      	ldr	r1, [r4, #12]
 8001768:	e002      	b.n	8001770 <USB_OTG_CoreInit+0x9c>
 800176a:	68e1      	ldr	r1, [r4, #12]
 800176c:	232a      	movs	r3, #42	@ 0x2a
 800176e:	608b      	str	r3, [r1, #8]
 8001770:	688b      	ldr	r3, [r1, #8]
 8001772:	f023 023e 	bic.w	r2, r3, #62	@ 0x3e
 8001776:	f042 022a 	orr.w	r2, r2, #42	@ 0x2a
 800177a:	f362 0307 	bfi	r3, r2, #0, #8
 800177e:	608b      	str	r3, [r1, #8]
 8001780:	2000      	movs	r0, #0
 8001782:	bd38      	pop	{r3, r4, r5, pc}
 8001784:	f443 3380 	orr.w	r3, r3, #65536	@ 0x10000
 8001788:	60d3      	str	r3, [r2, #12]
 800178a:	6b15      	ldr	r5, [r2, #48]	@ 0x30
 800178c:	4b0a      	ldr	r3, [pc, #40]	@ (80017b8 <USB_OTG_CoreInit+0xe4>)
 800178e:	ea03 4315 	and.w	r3, r3, r5, lsr #16
 8001792:	f443 53a1 	orr.w	r3, r3, #5152	@ 0x1420
 8001796:	f043 030d 	orr.w	r3, r3, #13
 800179a:	f363 451f 	bfi	r5, r3, #16, #16
 800179e:	6315      	str	r5, [r2, #48]	@ 0x30
 80017a0:	20c8      	movs	r0, #200	@ 0xc8
 80017a2:	f7ff feab 	bl	80014fc <USB_OTG_BSP_mDelay>
 80017a6:	68e3      	ldr	r3, [r4, #12]
 80017a8:	f445 0500 	orr.w	r5, r5, #8388608	@ 0x800000
 80017ac:	631d      	str	r5, [r3, #48]	@ 0x30
 80017ae:	20c8      	movs	r0, #200	@ 0xc8
 80017b0:	f7ff fea4 	bl	80014fc <USB_OTG_BSP_mDelay>
 80017b4:	e7d4      	b.n	8001760 <USB_OTG_CoreInit+0x8c>
 80017b6:	bf00      	nop
 80017b8:	ffffe300 	.word	0xffffe300

080017bc <USB_OTG_EnableGlobalInt>:
 80017bc:	4603      	mov	r3, r0
 80017be:	2000      	movs	r0, #0
 80017c0:	68da      	ldr	r2, [r3, #12]
 80017c2:	6893      	ldr	r3, [r2, #8]
 80017c4:	f043 0301 	orr.w	r3, r3, #1
 80017c8:	6093      	str	r3, [r2, #8]
 80017ca:	4770      	bx	lr

080017cc <USB_OTG_DisableGlobalInt>:
 80017cc:	4603      	mov	r3, r0
 80017ce:	2000      	movs	r0, #0
 80017d0:	68da      	ldr	r2, [r3, #12]
 80017d2:	6893      	ldr	r3, [r2, #8]
 80017d4:	f023 0301 	bic.w	r3, r3, #1
 80017d8:	6093      	str	r3, [r2, #8]
 80017da:	4770      	bx	lr

080017dc <USB_OTG_FlushTxFifo>:
 80017dc:	b500      	push	{lr}
 80017de:	b083      	sub	sp, #12
 80017e0:	2300      	movs	r3, #0
 80017e2:	9301      	str	r3, [sp, #4]
 80017e4:	9b01      	ldr	r3, [sp, #4]
 80017e6:	f043 0320 	orr.w	r3, r3, #32
 80017ea:	9301      	str	r3, [sp, #4]
 80017ec:	9b01      	ldr	r3, [sp, #4]
 80017ee:	f361 138a 	bfi	r3, r1, #6, #5
 80017f2:	9301      	str	r3, [sp, #4]
 80017f4:	68c1      	ldr	r1, [r0, #12]
 80017f6:	9a01      	ldr	r2, [sp, #4]
 80017f8:	4b07      	ldr	r3, [pc, #28]	@ (8001818 <USB_OTG_FlushTxFifo+0x3c>)
 80017fa:	610a      	str	r2, [r1, #16]
 80017fc:	690a      	ldr	r2, [r1, #16]
 80017fe:	9201      	str	r2, [sp, #4]
 8001800:	3b01      	subs	r3, #1
 8001802:	d002      	beq.n	800180a <USB_OTG_FlushTxFifo+0x2e>
 8001804:	9a01      	ldr	r2, [sp, #4]
 8001806:	0692      	lsls	r2, r2, #26
 8001808:	d4f8      	bmi.n	80017fc <USB_OTG_FlushTxFifo+0x20>
 800180a:	2003      	movs	r0, #3
 800180c:	f7ff fe74 	bl	80014f8 <USB_OTG_BSP_uDelay>
 8001810:	2000      	movs	r0, #0
 8001812:	b003      	add	sp, #12
 8001814:	f85d fb04 	ldr.w	pc, [sp], #4
 8001818:	00030d41 	.word	0x00030d41

0800181c <USB_OTG_SetCurrentMode>:
 800181c:	b510      	push	{r4, lr}
 800181e:	68c4      	ldr	r4, [r0, #12]
 8001820:	68e3      	ldr	r3, [r4, #12]
 8001822:	f3c3 6207 	ubfx	r2, r3, #24, #8
 8001826:	f022 0260 	bic.w	r2, r2, #96	@ 0x60
 800182a:	2901      	cmp	r1, #1
 800182c:	f362 631f 	bfi	r3, r2, #24, #8
 8001830:	d008      	beq.n	8001844 <USB_OTG_SetCurrentMode+0x28>
 8001832:	b909      	cbnz	r1, 8001838 <USB_OTG_SetCurrentMode+0x1c>
 8001834:	f043 4380 	orr.w	r3, r3, #1073741824	@ 0x40000000
 8001838:	2032      	movs	r0, #50	@ 0x32
 800183a:	60e3      	str	r3, [r4, #12]
 800183c:	f7ff fe5e 	bl	80014fc <USB_OTG_BSP_mDelay>
 8001840:	2000      	movs	r0, #0
 8001842:	bd10      	pop	{r4, pc}
 8001844:	f043 5300 	orr.w	r3, r3, #536870912	@ 0x20000000
 8001848:	e7f6      	b.n	8001838 <USB_OTG_SetCurrentMode+0x1c>
 800184a:	bf00      	nop

0800184c <USB_OTG_IsDeviceMode>:
 800184c:	68c3      	ldr	r3, [r0, #12]
 800184e:	6958      	ldr	r0, [r3, #20]
 8001850:	43c0      	mvns	r0, r0
 8001852:	f000 0001 	and.w	r0, r0, #1
 8001856:	4770      	bx	lr

08001858 <USB_OTG_ReadCoreItr>:
 8001858:	68c3      	ldr	r3, [r0, #12]
 800185a:	6958      	ldr	r0, [r3, #20]
 800185c:	699b      	ldr	r3, [r3, #24]
 800185e:	4018      	ands	r0, r3
 8001860:	4770      	bx	lr
 8001862:	bf00      	nop

08001864 <USB_OTG_EnableDevInt>:
 8001864:	b410      	push	{r4}
 8001866:	68c3      	ldr	r3, [r0, #12]
 8001868:	4c0b      	ldr	r4, [pc, #44]	@ (8001898 <USB_OTG_EnableDevInt+0x34>)
 800186a:	f04f 31ff 	mov.w	r1, #4294967295	@ 0xffffffff
 800186e:	4602      	mov	r2, r0
 8001870:	2000      	movs	r0, #0
 8001872:	6198      	str	r0, [r3, #24]
 8001874:	6159      	str	r1, [r3, #20]
 8001876:	6059      	str	r1, [r3, #4]
 8001878:	6159      	str	r1, [r3, #20]
 800187a:	619c      	str	r4, [r3, #24]
 800187c:	78d1      	ldrb	r1, [r2, #3]
 800187e:	4a07      	ldr	r2, [pc, #28]	@ (800189c <USB_OTG_EnableDevInt+0x38>)
 8001880:	699c      	ldr	r4, [r3, #24]
 8001882:	fab1 f181 	clz	r1, r1
 8001886:	0949      	lsrs	r1, r1, #5
 8001888:	ea42 1201 	orr.w	r2, r2, r1, lsl #4
 800188c:	4322      	orrs	r2, r4
 800188e:	619a      	str	r2, [r3, #24]
 8001890:	f85d 4b04 	ldr.w	r4, [sp], #4
 8001894:	4770      	bx	lr
 8001896:	bf00      	nop
 8001898:	80000800 	.word	0x80000800
 800189c:	403c380c 	.word	0x403c380c

080018a0 <USB_OTG_CoreInitDev>:
 80018a0:	b5f0      	push	{r4, r5, r6, r7, lr}
 80018a2:	4604      	mov	r4, r0
 80018a4:	2000      	movs	r0, #0
 80018a6:	f8d4 310c 	ldr.w	r3, [r4, #268]	@ 0x10c
 80018aa:	6922      	ldr	r2, [r4, #16]
 80018ac:	6018      	str	r0, [r3, #0]
 80018ae:	6813      	ldr	r3, [r2, #0]
 80018b0:	68e1      	ldr	r1, [r4, #12]
 80018b2:	f360 23cc 	bfi	r3, r0, #11, #2
 80018b6:	6013      	str	r3, [r2, #0]
 80018b8:	7ae3      	ldrb	r3, [r4, #11]
 80018ba:	2b01      	cmp	r3, #1
 80018bc:	b083      	sub	sp, #12
 80018be:	d111      	bne.n	80018e4 <USB_OTG_CoreInitDev+0x44>
 80018c0:	6813      	ldr	r3, [r2, #0]
 80018c2:	483e      	ldr	r0, [pc, #248]	@ (80019bc <USB_OTG_CoreInitDev+0x11c>)
 80018c4:	f043 0303 	orr.w	r3, r3, #3
 80018c8:	6013      	str	r3, [r2, #0]
 80018ca:	2580      	movs	r5, #128	@ 0x80
 80018cc:	4b3c      	ldr	r3, [pc, #240]	@ (80019c0 <USB_OTG_CoreInitDev+0x120>)
 80018ce:	624d      	str	r5, [r1, #36]	@ 0x24
 80018d0:	4a3c      	ldr	r2, [pc, #240]	@ (80019c4 <USB_OTG_CoreInitDev+0x124>)
 80018d2:	6288      	str	r0, [r1, #40]	@ 0x28
 80018d4:	f8c1 3104 	str.w	r3, [r1, #260]	@ 0x104
 80018d8:	f44f 73a0 	mov.w	r3, #320	@ 0x140
 80018dc:	f8c1 2108 	str.w	r2, [r1, #264]	@ 0x108
 80018e0:	f8c1 310c 	str.w	r3, [r1, #268]	@ 0x10c
 80018e4:	2300      	movs	r3, #0
 80018e6:	9301      	str	r3, [sp, #4]
 80018e8:	9b01      	ldr	r3, [sp, #4]
 80018ea:	f043 0320 	orr.w	r3, r3, #32
 80018ee:	9301      	str	r3, [sp, #4]
 80018f0:	9a01      	ldr	r2, [sp, #4]
 80018f2:	4b35      	ldr	r3, [pc, #212]	@ (80019c8 <USB_OTG_CoreInitDev+0x128>)
 80018f4:	2010      	movs	r0, #16
 80018f6:	f360 128a 	bfi	r2, r0, #6, #5
 80018fa:	9201      	str	r2, [sp, #4]
 80018fc:	9a01      	ldr	r2, [sp, #4]
 80018fe:	610a      	str	r2, [r1, #16]
 8001900:	690a      	ldr	r2, [r1, #16]
 8001902:	9201      	str	r2, [sp, #4]
 8001904:	3b01      	subs	r3, #1
 8001906:	d002      	beq.n	800190e <USB_OTG_CoreInitDev+0x6e>
 8001908:	9a01      	ldr	r2, [sp, #4]
 800190a:	0690      	lsls	r0, r2, #26
 800190c:	d4f8      	bmi.n	8001900 <USB_OTG_CoreInitDev+0x60>
 800190e:	2003      	movs	r0, #3
 8001910:	f7ff fdf2 	bl	80014f8 <USB_OTG_BSP_uDelay>
 8001914:	2300      	movs	r3, #0
 8001916:	9300      	str	r3, [sp, #0]
 8001918:	9b00      	ldr	r3, [sp, #0]
 800191a:	68e1      	ldr	r1, [r4, #12]
 800191c:	f043 0310 	orr.w	r3, r3, #16
 8001920:	9300      	str	r3, [sp, #0]
 8001922:	9a00      	ldr	r2, [sp, #0]
 8001924:	4b28      	ldr	r3, [pc, #160]	@ (80019c8 <USB_OTG_CoreInitDev+0x128>)
 8001926:	610a      	str	r2, [r1, #16]
 8001928:	690a      	ldr	r2, [r1, #16]
 800192a:	9200      	str	r2, [sp, #0]
 800192c:	3b01      	subs	r3, #1
 800192e:	d002      	beq.n	8001936 <USB_OTG_CoreInitDev+0x96>
 8001930:	9a00      	ldr	r2, [sp, #0]
 8001932:	06d2      	lsls	r2, r2, #27
 8001934:	d4f8      	bmi.n	8001928 <USB_OTG_CoreInitDev+0x88>
 8001936:	2003      	movs	r0, #3
 8001938:	f7ff fdde 	bl	80014f8 <USB_OTG_BSP_uDelay>
 800193c:	6926      	ldr	r6, [r4, #16]
 800193e:	2500      	movs	r5, #0
 8001940:	f04f 33ff 	mov.w	r3, #4294967295	@ 0xffffffff
 8001944:	6135      	str	r5, [r6, #16]
 8001946:	6175      	str	r5, [r6, #20]
 8001948:	61b3      	str	r3, [r6, #24]
 800194a:	61f5      	str	r5, [r6, #28]
 800194c:	7860      	ldrb	r0, [r4, #1]
 800194e:	b330      	cbz	r0, 800199e <USB_OTG_CoreInitDev+0xfe>
 8001950:	f104 0214 	add.w	r2, r4, #20
 8001954:	ea4f 0c80 	mov.w	ip, r0, lsl #2
 8001958:	27ff      	movs	r7, #255	@ 0xff
 800195a:	eb02 0080 	add.w	r0, r2, r0, lsl #2
 800195e:	f852 3f04 	ldr.w	r3, [r2, #4]!
 8001962:	6819      	ldr	r1, [r3, #0]
 8001964:	2900      	cmp	r1, #0
 8001966:	bfb4      	ite	lt
 8001968:	f04f 4190 	movlt.w	r1, #1207959552	@ 0x48000000
 800196c:	2100      	movge	r1, #0
 800196e:	4282      	cmp	r2, r0
 8001970:	6019      	str	r1, [r3, #0]
 8001972:	611d      	str	r5, [r3, #16]
 8001974:	609f      	str	r7, [r3, #8]
 8001976:	d1f2      	bne.n	800195e <USB_OTG_CoreInitDev+0xbe>
 8001978:	f104 0250 	add.w	r2, r4, #80	@ 0x50
 800197c:	eb02 000c 	add.w	r0, r2, ip
 8001980:	2700      	movs	r7, #0
 8001982:	25ff      	movs	r5, #255	@ 0xff
 8001984:	f852 3f04 	ldr.w	r3, [r2, #4]!
 8001988:	6819      	ldr	r1, [r3, #0]
 800198a:	2900      	cmp	r1, #0
 800198c:	bfb4      	ite	lt
 800198e:	f04f 4190 	movlt.w	r1, #1207959552	@ 0x48000000
 8001992:	2100      	movge	r1, #0
 8001994:	4290      	cmp	r0, r2
 8001996:	6019      	str	r1, [r3, #0]
 8001998:	611f      	str	r7, [r3, #16]
 800199a:	609d      	str	r5, [r3, #8]
 800199c:	d1f2      	bne.n	8001984 <USB_OTG_CoreInitDev+0xe4>
 800199e:	6933      	ldr	r3, [r6, #16]
 80019a0:	f443 7380 	orr.w	r3, r3, #256	@ 0x100
 80019a4:	6133      	str	r3, [r6, #16]
 80019a6:	78e3      	ldrb	r3, [r4, #3]
 80019a8:	2b01      	cmp	r3, #1
 80019aa:	d101      	bne.n	80019b0 <USB_OTG_CoreInitDev+0x110>
 80019ac:	4b07      	ldr	r3, [pc, #28]	@ (80019cc <USB_OTG_CoreInitDev+0x12c>)
 80019ae:	6333      	str	r3, [r6, #48]	@ 0x30
 80019b0:	4620      	mov	r0, r4
 80019b2:	f7ff ff57 	bl	8001864 <USB_OTG_EnableDevInt>
 80019b6:	2000      	movs	r0, #0
 80019b8:	b003      	add	sp, #12
 80019ba:	bdf0      	pop	{r4, r5, r6, r7, pc}
 80019bc:	00200080 	.word	0x00200080
 80019c0:	008000a0 	.word	0x008000a0
 80019c4:	00200120 	.word	0x00200120
 80019c8:	00030d41 	.word	0x00030d41
 80019cc:	00810103 	.word	0x00810103

080019d0 <USB_OTG_GetDeviceSpeed>:
 80019d0:	6903      	ldr	r3, [r0, #16]
 80019d2:	6898      	ldr	r0, [r3, #8]
 80019d4:	f3c0 0041 	ubfx	r0, r0, #1, #2
 80019d8:	2802      	cmp	r0, #2
 80019da:	bf1d      	ittte	ne
 80019dc:	f020 0002 	bicne.w	r0, r0, #2
 80019e0:	f1c0 0003 	rsbne	r0, r0, #3
 80019e4:	b2c0      	uxtbne	r0, r0
 80019e6:	2001      	moveq	r0, #1
 80019e8:	4770      	bx	lr
 80019ea:	bf00      	nop

080019ec <USB_OTG_EP0Activate>:
 80019ec:	6903      	ldr	r3, [r0, #16]
 80019ee:	6981      	ldr	r1, [r0, #24]
 80019f0:	689a      	ldr	r2, [r3, #8]
 80019f2:	6808      	ldr	r0, [r1, #0]
 80019f4:	f3c2 0241 	ubfx	r2, r2, #1, #2
 80019f8:	2a02      	cmp	r2, #2
 80019fa:	bf0c      	ite	eq
 80019fc:	2203      	moveq	r2, #3
 80019fe:	2200      	movne	r2, #0
 8001a00:	f362 000a 	bfi	r0, r2, #0, #11
 8001a04:	6008      	str	r0, [r1, #0]
 8001a06:	685a      	ldr	r2, [r3, #4]
 8001a08:	f442 7280 	orr.w	r2, r2, #256	@ 0x100
 8001a0c:	2000      	movs	r0, #0
 8001a0e:	605a      	str	r2, [r3, #4]
 8001a10:	4770      	bx	lr
 8001a12:	bf00      	nop

08001a14 <USB_OTG_EPActivate>:
 8001a14:	b430      	push	{r4, r5}
 8001a16:	f891 c000 	ldrb.w	ip, [r1]
 8001a1a:	784c      	ldrb	r4, [r1, #1]
 8001a1c:	2301      	movs	r3, #1
 8001a1e:	fa03 f30c 	lsl.w	r3, r3, ip
 8001a22:	eb00 0c8c 	add.w	ip, r0, ip, lsl #2
 8001a26:	2c01      	cmp	r4, #1
 8001a28:	bf0c      	ite	eq
 8001a2a:	f8dc 4018 	ldreq.w	r4, [ip, #24]
 8001a2e:	f8dc 4054 	ldrne.w	r4, [ip, #84]	@ 0x54
 8001a32:	6825      	ldr	r5, [r4, #0]
 8001a34:	b29b      	uxth	r3, r3
 8001a36:	f04f 0200 	mov.w	r2, #0
 8001a3a:	bf0c      	ite	eq
 8001a3c:	f363 020f 	bfieq	r2, r3, #0, #16
 8001a40:	f363 421f 	bfine	r2, r3, #16, #16
 8001a44:	042b      	lsls	r3, r5, #16
 8001a46:	d415      	bmi.n	8001a74 <USB_OTG_EPActivate+0x60>
 8001a48:	688b      	ldr	r3, [r1, #8]
 8001a4a:	f891 c003 	ldrb.w	ip, [r1, #3]
 8001a4e:	88c9      	ldrh	r1, [r1, #6]
 8001a50:	f3c3 030a 	ubfx	r3, r3, #0, #11
 8001a54:	f043 5380 	orr.w	r3, r3, #268435456	@ 0x10000000
 8001a58:	f443 4300 	orr.w	r3, r3, #32768	@ 0x8000
 8001a5c:	f00c 0c03 	and.w	ip, ip, #3
 8001a60:	f001 010f 	and.w	r1, r1, #15
 8001a64:	ea43 438c 	orr.w	r3, r3, ip, lsl #18
 8001a68:	ea43 5381 	orr.w	r3, r3, r1, lsl #22
 8001a6c:	4905      	ldr	r1, [pc, #20]	@ (8001a84 <USB_OTG_EPActivate+0x70>)
 8001a6e:	4029      	ands	r1, r5
 8001a70:	430b      	orrs	r3, r1
 8001a72:	6023      	str	r3, [r4, #0]
 8001a74:	6903      	ldr	r3, [r0, #16]
 8001a76:	69d9      	ldr	r1, [r3, #28]
 8001a78:	430a      	orrs	r2, r1
 8001a7a:	2000      	movs	r0, #0
 8001a7c:	bc30      	pop	{r4, r5}
 8001a7e:	61da      	str	r2, [r3, #28]
 8001a80:	4770      	bx	lr
 8001a82:	bf00      	nop
 8001a84:	ec337800 	.word	0xec337800

08001a88 <USB_OTG_EPDeactivate>:
 8001a88:	780a      	ldrb	r2, [r1, #0]
 8001a8a:	f891 c001 	ldrb.w	ip, [r1, #1]
 8001a8e:	2301      	movs	r3, #1
 8001a90:	4093      	lsls	r3, r2
 8001a92:	eb00 0282 	add.w	r2, r0, r2, lsl #2
 8001a96:	b29b      	uxth	r3, r3
 8001a98:	f1bc 0f01 	cmp.w	ip, #1
 8001a9c:	f04f 0100 	mov.w	r1, #0
 8001aa0:	bf0b      	itete	eq
 8001aa2:	f363 010f 	bfieq	r1, r3, #0, #16
 8001aa6:	f363 411f 	bfine	r1, r3, #16, #16
 8001aaa:	6993      	ldreq	r3, [r2, #24]
 8001aac:	6d53      	ldrne	r3, [r2, #84]	@ 0x54
 8001aae:	6902      	ldr	r2, [r0, #16]
 8001ab0:	2000      	movs	r0, #0
 8001ab2:	6018      	str	r0, [r3, #0]
 8001ab4:	69d3      	ldr	r3, [r2, #28]
 8001ab6:	ea23 0301 	bic.w	r3, r3, r1
 8001aba:	61d3      	str	r3, [r2, #28]
 8001abc:	4770      	bx	lr
 8001abe:	bf00      	nop

08001ac0 <USB_OTG_EPStartXfer>:
 8001ac0:	e92d 47f0 	stmdb	sp!, {r4, r5, r6, r7, r8, r9, sl, lr}
 8001ac4:	784d      	ldrb	r5, [r1, #1]
 8001ac6:	780a      	ldrb	r2, [r1, #0]
 8001ac8:	694b      	ldr	r3, [r1, #20]
 8001aca:	f891 c003 	ldrb.w	ip, [r1, #3]
 8001ace:	2d01      	cmp	r5, #1
 8001ad0:	d02c      	beq.n	8001b2c <USB_OTG_EPStartXfer+0x6c>
 8001ad2:	eb00 0282 	add.w	r2, r0, r2, lsl #2
 8001ad6:	688f      	ldr	r7, [r1, #8]
 8001ad8:	6d55      	ldr	r5, [r2, #84]	@ 0x54
 8001ada:	f3c7 0212 	ubfx	r2, r7, #0, #19
 8001ade:	682c      	ldr	r4, [r5, #0]
 8001ae0:	692e      	ldr	r6, [r5, #16]
 8001ae2:	b30b      	cbz	r3, 8001b28 <USB_OTG_EPStartXfer+0x68>
 8001ae4:	443b      	add	r3, r7
 8001ae6:	3b01      	subs	r3, #1
 8001ae8:	fbb3 f3f7 	udiv	r3, r3, r7
 8001aec:	f3c3 0709 	ubfx	r7, r3, #0, #10
 8001af0:	fb07 f202 	mul.w	r2, r7, r2
 8001af4:	463b      	mov	r3, r7
 8001af6:	f3c2 0212 	ubfx	r2, r2, #0, #19
 8001afa:	ea42 42c3 	orr.w	r2, r2, r3, lsl #19
 8001afe:	f362 061c 	bfi	r6, r2, #0, #29
 8001b02:	612e      	str	r6, [r5, #16]
 8001b04:	78c3      	ldrb	r3, [r0, #3]
 8001b06:	2b01      	cmp	r3, #1
 8001b08:	bf04      	itt	eq
 8001b0a:	690b      	ldreq	r3, [r1, #16]
 8001b0c:	616b      	streq	r3, [r5, #20]
 8001b0e:	f1bc 0f01 	cmp.w	ip, #1
 8001b12:	d03c      	beq.n	8001b8e <USB_OTG_EPStartXfer+0xce>
 8001b14:	f3c4 6307 	ubfx	r3, r4, #24, #8
 8001b18:	f063 037b 	orn	r3, r3, #123	@ 0x7b
 8001b1c:	f363 641f 	bfi	r4, r3, #24, #8
 8001b20:	602c      	str	r4, [r5, #0]
 8001b22:	2000      	movs	r0, #0
 8001b24:	e8bd 87f0 	ldmia.w	sp!, {r4, r5, r6, r7, r8, r9, sl, pc}
 8001b28:	2301      	movs	r3, #1
 8001b2a:	e7e6      	b.n	8001afa <USB_OTG_EPStartXfer+0x3a>
 8001b2c:	eb00 0882 	add.w	r8, r0, r2, lsl #2
 8001b30:	f8d8 7018 	ldr.w	r7, [r8, #24]
 8001b34:	683c      	ldr	r4, [r7, #0]
 8001b36:	693e      	ldr	r6, [r7, #16]
 8001b38:	bb73      	cbnz	r3, 8001b98 <USB_OTG_EPStartXfer+0xd8>
 8001b3a:	f006 4660 	and.w	r6, r6, #3758096384	@ 0xe0000000
 8001b3e:	f446 2600 	orr.w	r6, r6, #524288	@ 0x80000
 8001b42:	613e      	str	r6, [r7, #16]
 8001b44:	78c2      	ldrb	r2, [r0, #3]
 8001b46:	2a01      	cmp	r2, #1
 8001b48:	d05e      	beq.n	8001c08 <USB_OTG_EPStartXfer+0x148>
 8001b4a:	f1bc 0f01 	cmp.w	ip, #1
 8001b4e:	d144      	bne.n	8001bda <USB_OTG_EPStartXfer+0x11a>
 8001b50:	6900      	ldr	r0, [r0, #16]
 8001b52:	6880      	ldr	r0, [r0, #8]
 8001b54:	f410 7f80 	tst.w	r0, #256	@ 0x100
 8001b58:	f3c4 6007 	ubfx	r0, r4, #24, #8
 8001b5c:	bf0c      	ite	eq
 8001b5e:	f060 005b 	orneq	r0, r0, #91	@ 0x5b
 8001b62:	f060 006b 	ornne	r0, r0, #107	@ 0x6b
 8001b66:	f360 641f 	bfi	r4, r0, #24, #8
 8001b6a:	603c      	str	r4, [r7, #0]
 8001b6c:	2a00      	cmp	r2, #0
 8001b6e:	d1d8      	bne.n	8001b22 <USB_OTG_EPStartXfer+0x62>
 8001b70:	b298      	uxth	r0, r3
 8001b72:	3003      	adds	r0, #3
 8001b74:	1080      	asrs	r0, r0, #2
 8001b76:	f8d8 40d0 	ldr.w	r4, [r8, #208]	@ 0xd0
 8001b7a:	d0d2      	beq.n	8001b22 <USB_OTG_EPStartXfer+0x62>
 8001b7c:	68c9      	ldr	r1, [r1, #12]
 8001b7e:	4613      	mov	r3, r2
 8001b80:	3301      	adds	r3, #1
 8001b82:	f851 2b04 	ldr.w	r2, [r1], #4
 8001b86:	6022      	str	r2, [r4, #0]
 8001b88:	4298      	cmp	r0, r3
 8001b8a:	d1f9      	bne.n	8001b80 <USB_OTG_EPStartXfer+0xc0>
 8001b8c:	e7c9      	b.n	8001b22 <USB_OTG_EPStartXfer+0x62>
 8001b8e:	794b      	ldrb	r3, [r1, #5]
 8001b90:	b36b      	cbz	r3, 8001bee <USB_OTG_EPStartXfer+0x12e>
 8001b92:	f044 5400 	orr.w	r4, r4, #536870912	@ 0x20000000
 8001b96:	e7bd      	b.n	8001b14 <USB_OTG_EPStartXfer+0x54>
 8001b98:	f8d1 a008 	ldr.w	sl, [r1, #8]
 8001b9c:	f006 4960 	and.w	r9, r6, #3758096384	@ 0xe0000000
 8001ba0:	4e1e      	ldr	r6, [pc, #120]	@ (8001c1c <USB_OTG_EPStartXfer+0x15c>)
 8001ba2:	eb0a 0e03 	add.w	lr, sl, r3
 8001ba6:	f10e 3eff 	add.w	lr, lr, #4294967295	@ 0xffffffff
 8001baa:	fbbe fefa 	udiv	lr, lr, sl
 8001bae:	ea06 4ece 	and.w	lr, r6, lr, lsl #19
 8001bb2:	f3c3 0612 	ubfx	r6, r3, #0, #19
 8001bb6:	ea4e 0e06 	orr.w	lr, lr, r6
 8001bba:	ea4e 0e09 	orr.w	lr, lr, r9
 8001bbe:	f1bc 0f01 	cmp.w	ip, #1
 8001bc2:	4676      	mov	r6, lr
 8001bc4:	d016      	beq.n	8001bf4 <USB_OTG_EPStartXfer+0x134>
 8001bc6:	f8c7 e010 	str.w	lr, [r7, #16]
 8001bca:	78c3      	ldrb	r3, [r0, #3]
 8001bcc:	2b01      	cmp	r3, #1
 8001bce:	d021      	beq.n	8001c14 <USB_OTG_EPStartXfer+0x154>
 8001bd0:	6903      	ldr	r3, [r0, #16]
 8001bd2:	4095      	lsls	r5, r2
 8001bd4:	6b5a      	ldr	r2, [r3, #52]	@ 0x34
 8001bd6:	4315      	orrs	r5, r2
 8001bd8:	635d      	str	r5, [r3, #52]	@ 0x34
 8001bda:	f3c4 6307 	ubfx	r3, r4, #24, #8
 8001bde:	f063 037b 	orn	r3, r3, #123	@ 0x7b
 8001be2:	f363 641f 	bfi	r4, r3, #24, #8
 8001be6:	603c      	str	r4, [r7, #0]
 8001be8:	2000      	movs	r0, #0
 8001bea:	e8bd 87f0 	ldmia.w	sp!, {r4, r5, r6, r7, r8, r9, sl, pc}
 8001bee:	f044 5480 	orr.w	r4, r4, #268435456	@ 0x10000000
 8001bf2:	e78f      	b.n	8001b14 <USB_OTG_EPStartXfer+0x54>
 8001bf4:	f36c 765e 	bfi	r6, ip, #29, #2
 8001bf8:	613e      	str	r6, [r7, #16]
 8001bfa:	78c2      	ldrb	r2, [r0, #3]
 8001bfc:	2a01      	cmp	r2, #1
 8001bfe:	d1a7      	bne.n	8001b50 <USB_OTG_EPStartXfer+0x90>
 8001c00:	690a      	ldr	r2, [r1, #16]
 8001c02:	617a      	str	r2, [r7, #20]
 8001c04:	2201      	movs	r2, #1
 8001c06:	e7a3      	b.n	8001b50 <USB_OTG_EPStartXfer+0x90>
 8001c08:	690a      	ldr	r2, [r1, #16]
 8001c0a:	617a      	str	r2, [r7, #20]
 8001c0c:	f1bc 0f01 	cmp.w	ip, #1
 8001c10:	d0f8      	beq.n	8001c04 <USB_OTG_EPStartXfer+0x144>
 8001c12:	e7e2      	b.n	8001bda <USB_OTG_EPStartXfer+0x11a>
 8001c14:	690b      	ldr	r3, [r1, #16]
 8001c16:	617b      	str	r3, [r7, #20]
 8001c18:	e7df      	b.n	8001bda <USB_OTG_EPStartXfer+0x11a>
 8001c1a:	bf00      	nop
 8001c1c:	1ff80000 	.word	0x1ff80000

08001c20 <USB_OTG_EP0StartXfer>:
 8001c20:	b430      	push	{r4, r5}
 8001c22:	784b      	ldrb	r3, [r1, #1]
 8001c24:	694c      	ldr	r4, [r1, #20]
 8001c26:	2b01      	cmp	r3, #1
 8001c28:	b082      	sub	sp, #8
 8001c2a:	d026      	beq.n	8001c7a <USB_OTG_EP0StartXfer+0x5a>
 8001c2c:	780b      	ldrb	r3, [r1, #0]
 8001c2e:	eb00 0383 	add.w	r3, r0, r3, lsl #2
 8001c32:	6d5d      	ldr	r5, [r3, #84]	@ 0x54
 8001c34:	682a      	ldr	r2, [r5, #0]
 8001c36:	692b      	ldr	r3, [r5, #16]
 8001c38:	9300      	str	r3, [sp, #0]
 8001c3a:	688b      	ldr	r3, [r1, #8]
 8001c3c:	b9dc      	cbnz	r4, 8001c76 <USB_OTG_EP0StartXfer+0x56>
 8001c3e:	9c00      	ldr	r4, [sp, #0]
 8001c40:	f003 037f 	and.w	r3, r3, #127	@ 0x7f
 8001c44:	f424 1cc0 	bic.w	ip, r4, #1572864	@ 0x180000
 8001c48:	f443 2300 	orr.w	r3, r3, #524288	@ 0x80000
 8001c4c:	f02c 0c7f 	bic.w	ip, ip, #127	@ 0x7f
 8001c50:	ea43 030c 	orr.w	r3, r3, ip
 8001c54:	612b      	str	r3, [r5, #16]
 8001c56:	78c3      	ldrb	r3, [r0, #3]
 8001c58:	2b01      	cmp	r3, #1
 8001c5a:	bf04      	itt	eq
 8001c5c:	690b      	ldreq	r3, [r1, #16]
 8001c5e:	616b      	streq	r3, [r5, #20]
 8001c60:	f3c2 6307 	ubfx	r3, r2, #24, #8
 8001c64:	f063 037b 	orn	r3, r3, #123	@ 0x7b
 8001c68:	f363 621f 	bfi	r2, r3, #24, #8
 8001c6c:	602a      	str	r2, [r5, #0]
 8001c6e:	2000      	movs	r0, #0
 8001c70:	b002      	add	sp, #8
 8001c72:	bc30      	pop	{r4, r5}
 8001c74:	4770      	bx	lr
 8001c76:	614b      	str	r3, [r1, #20]
 8001c78:	e7e1      	b.n	8001c3e <USB_OTG_EP0StartXfer+0x1e>
 8001c7a:	6985      	ldr	r5, [r0, #24]
 8001c7c:	682a      	ldr	r2, [r5, #0]
 8001c7e:	692b      	ldr	r3, [r5, #16]
 8001c80:	9300      	str	r3, [sp, #0]
 8001c82:	bb04      	cbnz	r4, 8001cc6 <USB_OTG_EP0StartXfer+0xa6>
 8001c84:	9b00      	ldr	r3, [sp, #0]
 8001c86:	f423 13c0 	bic.w	r3, r3, #1572864	@ 0x180000
 8001c8a:	f444 2400 	orr.w	r4, r4, #524288	@ 0x80000
 8001c8e:	f023 037f 	bic.w	r3, r3, #127	@ 0x7f
 8001c92:	4323      	orrs	r3, r4
 8001c94:	612b      	str	r3, [r5, #16]
 8001c96:	9300      	str	r3, [sp, #0]
 8001c98:	78c3      	ldrb	r3, [r0, #3]
 8001c9a:	2b01      	cmp	r3, #1
 8001c9c:	d01c      	beq.n	8001cd8 <USB_OTG_EP0StartXfer+0xb8>
 8001c9e:	f3c2 6407 	ubfx	r4, r2, #24, #8
 8001ca2:	f064 047b 	orn	r4, r4, #123	@ 0x7b
 8001ca6:	f364 621f 	bfi	r2, r4, #24, #8
 8001caa:	602a      	str	r2, [r5, #0]
 8001cac:	2b00      	cmp	r3, #0
 8001cae:	d1de      	bne.n	8001c6e <USB_OTG_EP0StartXfer+0x4e>
 8001cb0:	694b      	ldr	r3, [r1, #20]
 8001cb2:	2b00      	cmp	r3, #0
 8001cb4:	d0db      	beq.n	8001c6e <USB_OTG_EP0StartXfer+0x4e>
 8001cb6:	6902      	ldr	r2, [r0, #16]
 8001cb8:	7808      	ldrb	r0, [r1, #0]
 8001cba:	6b51      	ldr	r1, [r2, #52]	@ 0x34
 8001cbc:	2301      	movs	r3, #1
 8001cbe:	4083      	lsls	r3, r0
 8001cc0:	430b      	orrs	r3, r1
 8001cc2:	6353      	str	r3, [r2, #52]	@ 0x34
 8001cc4:	e7d3      	b.n	8001c6e <USB_OTG_EP0StartXfer+0x4e>
 8001cc6:	688b      	ldr	r3, [r1, #8]
 8001cc8:	42a3      	cmp	r3, r4
 8001cca:	bf3a      	itte	cc
 8001ccc:	614b      	strcc	r3, [r1, #20]
 8001cce:	f003 047f 	andcc.w	r4, r3, #127	@ 0x7f
 8001cd2:	f004 047f 	andcs.w	r4, r4, #127	@ 0x7f
 8001cd6:	e7d5      	b.n	8001c84 <USB_OTG_EP0StartXfer+0x64>
 8001cd8:	780b      	ldrb	r3, [r1, #0]
 8001cda:	690c      	ldr	r4, [r1, #16]
 8001cdc:	eb00 0183 	add.w	r1, r0, r3, lsl #2
 8001ce0:	f3c2 6307 	ubfx	r3, r2, #24, #8
 8001ce4:	6989      	ldr	r1, [r1, #24]
 8001ce6:	f063 037b 	orn	r3, r3, #123	@ 0x7b
 8001cea:	f363 621f 	bfi	r2, r3, #24, #8
 8001cee:	2000      	movs	r0, #0
 8001cf0:	614c      	str	r4, [r1, #20]
 8001cf2:	602a      	str	r2, [r5, #0]
 8001cf4:	b002      	add	sp, #8
 8001cf6:	bc30      	pop	{r4, r5}
 8001cf8:	4770      	bx	lr
 8001cfa:	bf00      	nop

08001cfc <USB_OTG_EPSetStall>:
 8001cfc:	784b      	ldrb	r3, [r1, #1]
 8001cfe:	780a      	ldrb	r2, [r1, #0]
 8001d00:	2b01      	cmp	r3, #1
 8001d02:	eb00 0082 	add.w	r0, r0, r2, lsl #2
 8001d06:	d006      	beq.n	8001d16 <USB_OTG_EPSetStall+0x1a>
 8001d08:	6d42      	ldr	r2, [r0, #84]	@ 0x54
 8001d0a:	6813      	ldr	r3, [r2, #0]
 8001d0c:	f443 1300 	orr.w	r3, r3, #2097152	@ 0x200000
 8001d10:	6013      	str	r3, [r2, #0]
 8001d12:	2000      	movs	r0, #0
 8001d14:	4770      	bx	lr
 8001d16:	6980      	ldr	r0, [r0, #24]
 8001d18:	4908      	ldr	r1, [pc, #32]	@ (8001d3c <USB_OTG_EPSetStall+0x40>)
 8001d1a:	6802      	ldr	r2, [r0, #0]
 8001d1c:	2a00      	cmp	r2, #0
 8001d1e:	bfa8      	it	ge
 8001d20:	f3c2 7380 	ubfxge	r3, r2, #30, #1
 8001d24:	039b      	lsls	r3, r3, #14
 8001d26:	ea01 4112 	and.w	r1, r1, r2, lsr #16
 8001d2a:	f043 0320 	orr.w	r3, r3, #32
 8001d2e:	430b      	orrs	r3, r1
 8001d30:	f363 421f 	bfi	r2, r3, #16, #16
 8001d34:	6002      	str	r2, [r0, #0]
 8001d36:	2000      	movs	r0, #0
 8001d38:	4770      	bx	lr
 8001d3a:	bf00      	nop
 8001d3c:	ffffbfdf 	.word	0xffffbfdf

08001d40 <USB_OTG_EPClearStall>:
 8001d40:	780b      	ldrb	r3, [r1, #0]
 8001d42:	784a      	ldrb	r2, [r1, #1]
 8001d44:	eb00 0083 	add.w	r0, r0, r3, lsl #2
 8001d48:	2a01      	cmp	r2, #1
 8001d4a:	bf0c      	ite	eq
 8001d4c:	6980      	ldreq	r0, [r0, #24]
 8001d4e:	6d40      	ldrne	r0, [r0, #84]	@ 0x54
 8001d50:	78ca      	ldrb	r2, [r1, #3]
 8001d52:	6803      	ldr	r3, [r0, #0]
 8001d54:	3a02      	subs	r2, #2
 8001d56:	2a01      	cmp	r2, #1
 8001d58:	f36f 5355 	bfc	r3, #21, #1
 8001d5c:	bf8c      	ite	hi
 8001d5e:	f3c3 7200 	ubfxhi	r2, r3, #28, #1
 8001d62:	2201      	movls	r2, #1
 8001d64:	f362 731c 	bfi	r3, r2, #28, #1
 8001d68:	6003      	str	r3, [r0, #0]
 8001d6a:	2000      	movs	r0, #0
 8001d6c:	4770      	bx	lr
 8001d6e:	bf00      	nop

08001d70 <USB_OTG_ReadDevAllOutEp_itr>:
 8001d70:	6903      	ldr	r3, [r0, #16]
 8001d72:	6998      	ldr	r0, [r3, #24]
 8001d74:	69db      	ldr	r3, [r3, #28]
 8001d76:	4018      	ands	r0, r3
 8001d78:	0c00      	lsrs	r0, r0, #16
 8001d7a:	4770      	bx	lr

08001d7c <USB_OTG_ReadDevOutEP_itr>:
 8001d7c:	eb00 0181 	add.w	r1, r0, r1, lsl #2
 8001d80:	6903      	ldr	r3, [r0, #16]
 8001d82:	6d4a      	ldr	r2, [r1, #84]	@ 0x54
 8001d84:	6890      	ldr	r0, [r2, #8]
 8001d86:	695b      	ldr	r3, [r3, #20]
 8001d88:	4018      	ands	r0, r3
 8001d8a:	4770      	bx	lr

08001d8c <USB_OTG_ReadDevAllInEPItr>:
 8001d8c:	6903      	ldr	r3, [r0, #16]
 8001d8e:	6998      	ldr	r0, [r3, #24]
 8001d90:	69db      	ldr	r3, [r3, #28]
 8001d92:	4018      	ands	r0, r3
 8001d94:	b280      	uxth	r0, r0
 8001d96:	4770      	bx	lr

08001d98 <USB_OTG_EP0_OutStart>:
 8001d98:	6d43      	ldr	r3, [r0, #84]	@ 0x54
 8001d9a:	4a06      	ldr	r2, [pc, #24]	@ (8001db4 <USB_OTG_EP0_OutStart+0x1c>)
 8001d9c:	611a      	str	r2, [r3, #16]
 8001d9e:	78c2      	ldrb	r2, [r0, #3]
 8001da0:	2a01      	cmp	r2, #1
 8001da2:	d106      	bne.n	8001db2 <USB_OTG_EP0_OutStart+0x1a>
 8001da4:	f500 60b9 	add.w	r0, r0, #1480	@ 0x5c8
 8001da8:	6158      	str	r0, [r3, #20]
 8001daa:	f04f 2280 	mov.w	r2, #2147516416	@ 0x80008000
 8001dae:	6819      	ldr	r1, [r3, #0]
 8001db0:	601a      	str	r2, [r3, #0]
 8001db2:	4770      	bx	lr
 8001db4:	c0080018 	.word	0xc0080018

08001db8 <DCD_Init>:
 8001db8:	b5f8      	push	{r3, r4, r5, r6, r7, lr}
 8001dba:	4606      	mov	r6, r0
 8001dbc:	f7ff fbfa 	bl	80015b4 <USB_OTG_SelectCore>
 8001dc0:	7875      	ldrb	r5, [r6, #1]
 8001dc2:	2001      	movs	r0, #1
 8001dc4:	f8a6 0112 	strh.w	r0, [r6, #274]	@ 0x112
 8001dc8:	b34d      	cbz	r5, 8001e1e <DCD_Init+0x66>
 8001dca:	2100      	movs	r1, #0
 8001dcc:	4633      	mov	r3, r6
 8001dce:	4632      	mov	r2, r6
 8001dd0:	460c      	mov	r4, r1
 8001dd2:	2740      	movs	r7, #64	@ 0x40
 8001dd4:	f882 1118 	strb.w	r1, [r2, #280]	@ 0x118
 8001dd8:	f8a2 111e 	strh.w	r1, [r2, #286]	@ 0x11e
 8001ddc:	3101      	adds	r1, #1
 8001dde:	42a9      	cmp	r1, r5
 8001de0:	e9c2 7448 	strd	r7, r4, [r2, #288]	@ 0x120
 8001de4:	f882 0119 	strb.w	r0, [r2, #281]	@ 0x119
 8001de8:	f882 411b 	strb.w	r4, [r2, #283]	@ 0x11b
 8001dec:	f8c2 412c 	str.w	r4, [r2, #300]	@ 0x12c
 8001df0:	f102 0228 	add.w	r2, r2, #40	@ 0x28
 8001df4:	d1ee      	bne.n	8001dd4 <DCD_Init+0x1c>
 8001df6:	2200      	movs	r2, #0
 8001df8:	4611      	mov	r1, r2
 8001dfa:	2040      	movs	r0, #64	@ 0x40
 8001dfc:	f883 2370 	strb.w	r2, [r3, #880]	@ 0x370
 8001e00:	f8a3 2376 	strh.w	r2, [r3, #886]	@ 0x376
 8001e04:	3201      	adds	r2, #1
 8001e06:	42aa      	cmp	r2, r5
 8001e08:	e9c3 01de 	strd	r0, r1, [r3, #888]	@ 0x378
 8001e0c:	f883 1371 	strb.w	r1, [r3, #881]	@ 0x371
 8001e10:	f883 1373 	strb.w	r1, [r3, #883]	@ 0x373
 8001e14:	f8c3 1384 	str.w	r1, [r3, #900]	@ 0x384
 8001e18:	f103 0328 	add.w	r3, r3, #40	@ 0x28
 8001e1c:	d1ee      	bne.n	8001dfc <DCD_Init+0x44>
 8001e1e:	4630      	mov	r0, r6
 8001e20:	f7ff fcd4 	bl	80017cc <USB_OTG_DisableGlobalInt>
 8001e24:	4630      	mov	r0, r6
 8001e26:	f7ff fc55 	bl	80016d4 <USB_OTG_CoreInit>
 8001e2a:	2100      	movs	r1, #0
 8001e2c:	4630      	mov	r0, r6
 8001e2e:	f7ff fcf5 	bl	800181c <USB_OTG_SetCurrentMode>
 8001e32:	4630      	mov	r0, r6
 8001e34:	f7ff fd34 	bl	80018a0 <USB_OTG_CoreInitDev>
 8001e38:	4630      	mov	r0, r6
 8001e3a:	e8bd 40f8 	ldmia.w	sp!, {r3, r4, r5, r6, r7, lr}
 8001e3e:	f7ff bcbd 	b.w	80017bc <USB_OTG_EnableGlobalInt>
 8001e42:	bf00      	nop

08001e44 <DCD_EP_Open>:
 8001e44:	f011 0f80 	tst.w	r1, #128	@ 0x80
 8001e48:	b508      	push	{r3, lr}
 8001e4a:	468c      	mov	ip, r1
 8001e4c:	d119      	bne.n	8001e82 <DCD_EP_Open+0x3e>
 8001e4e:	eb0c 0e8c 	add.w	lr, ip, ip, lsl #2
 8001e52:	eb00 0ece 	add.w	lr, r0, lr, lsl #3
 8001e56:	2128      	movs	r1, #40	@ 0x28
 8001e58:	fb01 010c 	mla	r1, r1, ip, r0
 8001e5c:	f8ce 2378 	str.w	r2, [lr, #888]	@ 0x378
 8001e60:	2200      	movs	r2, #0
 8001e62:	f501 715c 	add.w	r1, r1, #880	@ 0x370
 8001e66:	f88e c370 	strb.w	ip, [lr, #880]	@ 0x370
 8001e6a:	f88e 3373 	strb.w	r3, [lr, #883]	@ 0x373
 8001e6e:	f88e 2371 	strb.w	r2, [lr, #881]	@ 0x371
 8001e72:	2b02      	cmp	r3, #2
 8001e74:	bf04      	itt	eq
 8001e76:	2300      	moveq	r3, #0
 8001e78:	710b      	strbeq	r3, [r1, #4]
 8001e7a:	f7ff fdcb 	bl	8001a14 <USB_OTG_EPActivate>
 8001e7e:	2000      	movs	r0, #0
 8001e80:	bd08      	pop	{r3, pc}
 8001e82:	f001 0c7f 	and.w	ip, r1, #127	@ 0x7f
 8001e86:	eb0c 0e8c 	add.w	lr, ip, ip, lsl #2
 8001e8a:	eb00 0ece 	add.w	lr, r0, lr, lsl #3
 8001e8e:	2128      	movs	r1, #40	@ 0x28
 8001e90:	fb01 010c 	mla	r1, r1, ip, r0
 8001e94:	f8ce 2120 	str.w	r2, [lr, #288]	@ 0x120
 8001e98:	2201      	movs	r2, #1
 8001e9a:	f501 718c 	add.w	r1, r1, #280	@ 0x118
 8001e9e:	f88e c118 	strb.w	ip, [lr, #280]	@ 0x118
 8001ea2:	f88e 311b 	strb.w	r3, [lr, #283]	@ 0x11b
 8001ea6:	f8ae c11e 	strh.w	ip, [lr, #286]	@ 0x11e
 8001eaa:	f88e 2119 	strb.w	r2, [lr, #281]	@ 0x119
 8001eae:	e7e0      	b.n	8001e72 <DCD_EP_Open+0x2e>

08001eb0 <DCD_EP_Close>:
 8001eb0:	b508      	push	{r3, lr}
 8001eb2:	b24b      	sxtb	r3, r1
 8001eb4:	2b00      	cmp	r3, #0
 8001eb6:	f001 027f 	and.w	r2, r1, #127	@ 0x7f
 8001eba:	db0c      	blt.n	8001ed6 <DCD_EP_Close+0x26>
 8001ebc:	f04f 0c28 	mov.w	ip, #40	@ 0x28
 8001ec0:	fb0c 0101 	mla	r1, ip, r1, r0
 8001ec4:	f501 715c 	add.w	r1, r1, #880	@ 0x370
 8001ec8:	0fdb      	lsrs	r3, r3, #31
 8001eca:	700a      	strb	r2, [r1, #0]
 8001ecc:	704b      	strb	r3, [r1, #1]
 8001ece:	f7ff fddb 	bl	8001a88 <USB_OTG_EPDeactivate>
 8001ed2:	2000      	movs	r0, #0
 8001ed4:	bd08      	pop	{r3, pc}
 8001ed6:	2128      	movs	r1, #40	@ 0x28
 8001ed8:	fb01 0102 	mla	r1, r1, r2, r0
 8001edc:	f501 718c 	add.w	r1, r1, #280	@ 0x118
 8001ee0:	e7f2      	b.n	8001ec8 <DCD_EP_Close+0x18>
 8001ee2:	bf00      	nop

08001ee4 <DCD_EP_PrepareRx>:
 8001ee4:	b510      	push	{r4, lr}
 8001ee6:	f001 047f 	and.w	r4, r1, #127	@ 0x7f
 8001eea:	eb04 0c84 	add.w	ip, r4, r4, lsl #2
 8001eee:	eb00 0ccc 	add.w	ip, r0, ip, lsl #3
 8001ef2:	2128      	movs	r1, #40	@ 0x28
 8001ef4:	f8cc 3384 	str.w	r3, [ip, #900]	@ 0x384
 8001ef8:	2300      	movs	r3, #0
 8001efa:	f8cc 237c 	str.w	r2, [ip, #892]	@ 0x37c
 8001efe:	f88c 4370 	strb.w	r4, [ip, #880]	@ 0x370
 8001f02:	f8cc 3388 	str.w	r3, [ip, #904]	@ 0x388
 8001f06:	f88c 3371 	strb.w	r3, [ip, #881]	@ 0x371
 8001f0a:	78c3      	ldrb	r3, [r0, #3]
 8001f0c:	fb01 0104 	mla	r1, r1, r4, r0
 8001f10:	2b01      	cmp	r3, #1
 8001f12:	f501 715c 	add.w	r1, r1, #880	@ 0x370
 8001f16:	bf08      	it	eq
 8001f18:	f8cc 2380 	streq.w	r2, [ip, #896]	@ 0x380
 8001f1c:	b91c      	cbnz	r4, 8001f26 <DCD_EP_PrepareRx+0x42>
 8001f1e:	f7ff fe7f 	bl	8001c20 <USB_OTG_EP0StartXfer>
 8001f22:	2000      	movs	r0, #0
 8001f24:	bd10      	pop	{r4, pc}
 8001f26:	f7ff fdcb 	bl	8001ac0 <USB_OTG_EPStartXfer>
 8001f2a:	2000      	movs	r0, #0
 8001f2c:	bd10      	pop	{r4, pc}
 8001f2e:	bf00      	nop

08001f30 <DCD_EP_Tx>:
 8001f30:	b510      	push	{r4, lr}
 8001f32:	f001 047f 	and.w	r4, r1, #127	@ 0x7f
 8001f36:	eb04 0e84 	add.w	lr, r4, r4, lsl #2
 8001f3a:	eb00 0ece 	add.w	lr, r0, lr, lsl #3
 8001f3e:	e9ce 2249 	strd	r2, r2, [lr, #292]	@ 0x124
 8001f42:	f8ce 312c 	str.w	r3, [lr, #300]	@ 0x12c
 8001f46:	2300      	movs	r3, #0
 8001f48:	f8ce 3130 	str.w	r3, [lr, #304]	@ 0x130
 8001f4c:	2328      	movs	r3, #40	@ 0x28
 8001f4e:	fb03 0c04 	mla	ip, r3, r4, r0
 8001f52:	2301      	movs	r3, #1
 8001f54:	f88e 4118 	strb.w	r4, [lr, #280]	@ 0x118
 8001f58:	f50c 718c 	add.w	r1, ip, #280	@ 0x118
 8001f5c:	f88e 3119 	strb.w	r3, [lr, #281]	@ 0x119
 8001f60:	b91c      	cbnz	r4, 8001f6a <DCD_EP_Tx+0x3a>
 8001f62:	f7ff fe5d 	bl	8001c20 <USB_OTG_EP0StartXfer>
 8001f66:	2000      	movs	r0, #0
 8001f68:	bd10      	pop	{r4, pc}
 8001f6a:	f7ff fda9 	bl	8001ac0 <USB_OTG_EPStartXfer>
 8001f6e:	2000      	movs	r0, #0
 8001f70:	bd10      	pop	{r4, pc}
 8001f72:	bf00      	nop

08001f74 <DCD_EP_Stall>:
 8001f74:	b508      	push	{r3, lr}
 8001f76:	b24b      	sxtb	r3, r1
 8001f78:	2b00      	cmp	r3, #0
 8001f7a:	f001 027f 	and.w	r2, r1, #127	@ 0x7f
 8001f7e:	db10      	blt.n	8001fa2 <DCD_EP_Stall+0x2e>
 8001f80:	f04f 0c28 	mov.w	ip, #40	@ 0x28
 8001f84:	fb0c 0101 	mla	r1, ip, r1, r0
 8001f88:	f501 715c 	add.w	r1, r1, #880	@ 0x370
 8001f8c:	0fdb      	lsrs	r3, r3, #31
 8001f8e:	f04f 0c01 	mov.w	ip, #1
 8001f92:	f881 c002 	strb.w	ip, [r1, #2]
 8001f96:	700a      	strb	r2, [r1, #0]
 8001f98:	704b      	strb	r3, [r1, #1]
 8001f9a:	f7ff feaf 	bl	8001cfc <USB_OTG_EPSetStall>
 8001f9e:	2000      	movs	r0, #0
 8001fa0:	bd08      	pop	{r3, pc}
 8001fa2:	2128      	movs	r1, #40	@ 0x28
 8001fa4:	fb01 0102 	mla	r1, r1, r2, r0
 8001fa8:	f501 718c 	add.w	r1, r1, #280	@ 0x118
 8001fac:	e7ee      	b.n	8001f8c <DCD_EP_Stall+0x18>
 8001fae:	bf00      	nop

08001fb0 <DCD_EP_ClrStall>:
 8001fb0:	b24b      	sxtb	r3, r1
 8001fb2:	2b00      	cmp	r3, #0
 8001fb4:	b510      	push	{r4, lr}
 8001fb6:	f001 027f 	and.w	r2, r1, #127	@ 0x7f
 8001fba:	db0d      	blt.n	8001fd8 <DCD_EP_ClrStall+0x28>
 8001fbc:	2428      	movs	r4, #40	@ 0x28
 8001fbe:	fb04 0101 	mla	r1, r4, r1, r0
 8001fc2:	f501 715c 	add.w	r1, r1, #880	@ 0x370
 8001fc6:	2400      	movs	r4, #0
 8001fc8:	0fdb      	lsrs	r3, r3, #31
 8001fca:	708c      	strb	r4, [r1, #2]
 8001fcc:	700a      	strb	r2, [r1, #0]
 8001fce:	704b      	strb	r3, [r1, #1]
 8001fd0:	f7ff feb6 	bl	8001d40 <USB_OTG_EPClearStall>
 8001fd4:	4620      	mov	r0, r4
 8001fd6:	bd10      	pop	{r4, pc}
 8001fd8:	2128      	movs	r1, #40	@ 0x28
 8001fda:	fb01 0102 	mla	r1, r1, r2, r0
 8001fde:	f501 718c 	add.w	r1, r1, #280	@ 0x118
 8001fe2:	e7f0      	b.n	8001fc6 <DCD_EP_ClrStall+0x16>

08001fe4 <DCD_EP_SetAddress>:
 8001fe4:	6902      	ldr	r2, [r0, #16]
 8001fe6:	2300      	movs	r3, #0
 8001fe8:	6810      	ldr	r0, [r2, #0]
 8001fea:	f361 130a 	bfi	r3, r1, #4, #7
 8001fee:	4303      	orrs	r3, r0
 8001ff0:	6013      	str	r3, [r2, #0]
 8001ff2:	4770      	bx	lr

08001ff4 <USBD_OTG_ISR_Handler>:
 8001ff4:	e92d 4ff0 	stmdb	sp!, {r4, r5, r6, r7, r8, r9, sl, fp, lr}
 8001ff8:	b083      	sub	sp, #12
 8001ffa:	4604      	mov	r4, r0
 8001ffc:	f7ff fc26 	bl	800184c <USB_OTG_IsDeviceMode>
 8002000:	b918      	cbnz	r0, 800200a <USBD_OTG_ISR_Handler+0x16>
 8002002:	2000      	movs	r0, #0
 8002004:	b003      	add	sp, #12
 8002006:	e8bd 8ff0 	ldmia.w	sp!, {r4, r5, r6, r7, r8, r9, sl, fp, pc}
 800200a:	4620      	mov	r0, r4
 800200c:	f7ff fc24 	bl	8001858 <USB_OTG_ReadCoreItr>
 8002010:	4680      	mov	r8, r0
 8002012:	2800      	cmp	r0, #0
 8002014:	d0f5      	beq.n	8002002 <USBD_OTG_ISR_Handler+0xe>
 8002016:	f3c0 4307 	ubfx	r3, r0, #16, #8
 800201a:	f013 0008 	ands.w	r0, r3, #8
 800201e:	9300      	str	r3, [sp, #0]
 8002020:	f040 80c2 	bne.w	80021a8 <USBD_OTG_ISR_Handler+0x1b4>
 8002024:	9b00      	ldr	r3, [sp, #0]
 8002026:	0759      	lsls	r1, r3, #29
 8002028:	d472      	bmi.n	8002110 <USBD_OTG_ISR_Handler+0x11c>
 800202a:	f018 0f02 	tst.w	r8, #2
 800202e:	fa5f f588 	uxtb.w	r5, r8
 8002032:	d002      	beq.n	800203a <USBD_OTG_ISR_Handler+0x46>
 8002034:	68e3      	ldr	r3, [r4, #12]
 8002036:	2202      	movs	r2, #2
 8002038:	615a      	str	r2, [r3, #20]
 800203a:	f1b8 0f00 	cmp.w	r8, #0
 800203e:	ea4f 6718 	mov.w	r7, r8, lsr #24
 8002042:	f2c0 8177 	blt.w	8002334 <USBD_OTG_ISR_Handler+0x340>
 8002046:	f418 6f00 	tst.w	r8, #2048	@ 0x800
 800204a:	f3c8 2607 	ubfx	r6, r8, #8, #8
 800204e:	f040 8111 	bne.w	8002274 <USBD_OTG_ISR_Handler+0x280>
 8002052:	0729      	lsls	r1, r5, #28
 8002054:	d508      	bpl.n	8002068 <USBD_OTG_ISR_Handler+0x74>
 8002056:	4b97      	ldr	r3, [pc, #604]	@ (80022b4 <USBD_OTG_ISR_Handler+0x2c0>)
 8002058:	681b      	ldr	r3, [r3, #0]
 800205a:	4620      	mov	r0, r4
 800205c:	68db      	ldr	r3, [r3, #12]
 800205e:	4798      	blx	r3
 8002060:	68e3      	ldr	r3, [r4, #12]
 8002062:	2208      	movs	r2, #8
 8002064:	615a      	str	r2, [r3, #20]
 8002066:	2001      	movs	r0, #1
 8002068:	06ea      	lsls	r2, r5, #27
 800206a:	d43a      	bmi.n	80020e2 <USBD_OTG_ISR_Handler+0xee>
 800206c:	06f3      	lsls	r3, r6, #27
 800206e:	f100 8125 	bmi.w	80022bc <USBD_OTG_ISR_Handler+0x2c8>
 8002072:	06b1      	lsls	r1, r6, #26
 8002074:	f100 80e0 	bmi.w	8002238 <USBD_OTG_ISR_Handler+0x244>
 8002078:	9b00      	ldr	r3, [sp, #0]
 800207a:	06da      	lsls	r2, r3, #27
 800207c:	d509      	bpl.n	8002092 <USBD_OTG_ISR_Handler+0x9e>
 800207e:	4b8d      	ldr	r3, [pc, #564]	@ (80022b4 <USBD_OTG_ISR_Handler+0x2c0>)
 8002080:	681b      	ldr	r3, [r3, #0]
 8002082:	4620      	mov	r0, r4
 8002084:	69db      	ldr	r3, [r3, #28]
 8002086:	4798      	blx	r3
 8002088:	68e3      	ldr	r3, [r4, #12]
 800208a:	f44f 1280 	mov.w	r2, #1048576	@ 0x100000
 800208e:	615a      	str	r2, [r3, #20]
 8002090:	2001      	movs	r0, #1
 8002092:	9b00      	ldr	r3, [sp, #0]
 8002094:	069b      	lsls	r3, r3, #26
 8002096:	d509      	bpl.n	80020ac <USBD_OTG_ISR_Handler+0xb8>
 8002098:	4b86      	ldr	r3, [pc, #536]	@ (80022b4 <USBD_OTG_ISR_Handler+0x2c0>)
 800209a:	681b      	ldr	r3, [r3, #0]
 800209c:	4620      	mov	r0, r4
 800209e:	6a1b      	ldr	r3, [r3, #32]
 80020a0:	4798      	blx	r3
 80020a2:	68e3      	ldr	r3, [r4, #12]
 80020a4:	f44f 1200 	mov.w	r2, #2097152	@ 0x200000
 80020a8:	615a      	str	r2, [r3, #20]
 80020aa:	2001      	movs	r0, #1
 80020ac:	067e      	lsls	r6, r7, #25
 80020ae:	d509      	bpl.n	80020c4 <USBD_OTG_ISR_Handler+0xd0>
 80020b0:	4b80      	ldr	r3, [pc, #512]	@ (80022b4 <USBD_OTG_ISR_Handler+0x2c0>)
 80020b2:	681b      	ldr	r3, [r3, #0]
 80020b4:	4620      	mov	r0, r4
 80020b6:	6a5b      	ldr	r3, [r3, #36]	@ 0x24
 80020b8:	4798      	blx	r3
 80020ba:	68e3      	ldr	r3, [r4, #12]
 80020bc:	f04f 4280 	mov.w	r2, #1073741824	@ 0x40000000
 80020c0:	615a      	str	r2, [r3, #20]
 80020c2:	2001      	movs	r0, #1
 80020c4:	0769      	lsls	r1, r5, #29
 80020c6:	d59d      	bpl.n	8002004 <USBD_OTG_ISR_Handler+0x10>
 80020c8:	68e3      	ldr	r3, [r4, #12]
 80020ca:	685d      	ldr	r5, [r3, #4]
 80020cc:	076a      	lsls	r2, r5, #29
 80020ce:	d505      	bpl.n	80020dc <USBD_OTG_ISR_Handler+0xe8>
 80020d0:	4b78      	ldr	r3, [pc, #480]	@ (80022b4 <USBD_OTG_ISR_Handler+0x2c0>)
 80020d2:	681b      	ldr	r3, [r3, #0]
 80020d4:	4620      	mov	r0, r4
 80020d6:	6a9b      	ldr	r3, [r3, #40]	@ 0x28
 80020d8:	4798      	blx	r3
 80020da:	68e3      	ldr	r3, [r4, #12]
 80020dc:	605d      	str	r5, [r3, #4]
 80020de:	2001      	movs	r0, #1
 80020e0:	e790      	b.n	8002004 <USBD_OTG_ISR_Handler+0x10>
 80020e2:	68e3      	ldr	r3, [r4, #12]
 80020e4:	699a      	ldr	r2, [r3, #24]
 80020e6:	f022 0210 	bic.w	r2, r2, #16
 80020ea:	619a      	str	r2, [r3, #24]
 80020ec:	f8d3 8020 	ldr.w	r8, [r3, #32]
 80020f0:	f3c8 4243 	ubfx	r2, r8, #17, #4
 80020f4:	2a02      	cmp	r2, #2
 80020f6:	f008 090f 	and.w	r9, r8, #15
 80020fa:	f000 81c1 	beq.w	8002480 <USBD_OTG_ISR_Handler+0x48c>
 80020fe:	2a06      	cmp	r2, #6
 8002100:	f000 81ab 	beq.w	800245a <USBD_OTG_ISR_Handler+0x466>
 8002104:	699a      	ldr	r2, [r3, #24]
 8002106:	f042 0210 	orr.w	r2, r2, #16
 800210a:	619a      	str	r2, [r3, #24]
 800210c:	2001      	movs	r0, #1
 800210e:	e7ad      	b.n	800206c <USBD_OTG_ISR_Handler+0x78>
 8002110:	4620      	mov	r0, r4
 8002112:	f7ff fe3b 	bl	8001d8c <USB_OTG_ReadDevAllInEPItr>
 8002116:	4681      	mov	r9, r0
 8002118:	2800      	cmp	r0, #0
 800211a:	d043      	beq.n	80021a4 <USBD_OTG_ISR_Handler+0x1b0>
 800211c:	4625      	mov	r5, r4
 800211e:	f104 0718 	add.w	r7, r4, #24
 8002122:	f04f 0b00 	mov.w	fp, #0
 8002126:	f8cd 8004 	str.w	r8, [sp, #4]
 800212a:	f019 0f01 	tst.w	r9, #1
 800212e:	d02e      	beq.n	800218e <USBD_OTG_ISR_Handler+0x19a>
 8002130:	fa5f f88b 	uxtb.w	r8, fp
 8002134:	6922      	ldr	r2, [r4, #16]
 8002136:	eb04 0388 	add.w	r3, r4, r8, lsl #2
 800213a:	6916      	ldr	r6, [r2, #16]
 800213c:	6998      	ldr	r0, [r3, #24]
 800213e:	6b53      	ldr	r3, [r2, #52]	@ 0x34
 8002140:	6880      	ldr	r0, [r0, #8]
 8002142:	fa23 f308 	lsr.w	r3, r3, r8
 8002146:	01db      	lsls	r3, r3, #7
 8002148:	b2db      	uxtb	r3, r3
 800214a:	4333      	orrs	r3, r6
 800214c:	4003      	ands	r3, r0
 800214e:	f013 0601 	ands.w	r6, r3, #1
 8002152:	b2d8      	uxtb	r0, r3
 8002154:	f000 8109 	beq.w	800236a <USBD_OTG_ISR_Handler+0x376>
 8002158:	4b56      	ldr	r3, [pc, #344]	@ (80022b4 <USBD_OTG_ISR_Handler+0x2c0>)
 800215a:	6b50      	ldr	r0, [r2, #52]	@ 0x34
 800215c:	6839      	ldr	r1, [r7, #0]
 800215e:	681b      	ldr	r3, [r3, #0]
 8002160:	f04f 0c01 	mov.w	ip, #1
 8002164:	fa0c fa0b 	lsl.w	sl, ip, fp
 8002168:	ea20 000a 	bic.w	r0, r0, sl
 800216c:	685b      	ldr	r3, [r3, #4]
 800216e:	6350      	str	r0, [r2, #52]	@ 0x34
 8002170:	f8c1 c008 	str.w	ip, [r1, #8]
 8002174:	4620      	mov	r0, r4
 8002176:	4641      	mov	r1, r8
 8002178:	4798      	blx	r3
 800217a:	78e3      	ldrb	r3, [r4, #3]
 800217c:	2b01      	cmp	r3, #1
 800217e:	f000 819d 	beq.w	80024bc <USBD_OTG_ISR_Handler+0x4c8>
 8002182:	0672      	lsls	r2, r6, #25
 8002184:	f140 80f7 	bpl.w	8002376 <USBD_OTG_ISR_Handler+0x382>
 8002188:	683b      	ldr	r3, [r7, #0]
 800218a:	2240      	movs	r2, #64	@ 0x40
 800218c:	609a      	str	r2, [r3, #8]
 800218e:	ea5f 0959 	movs.w	r9, r9, lsr #1
 8002192:	f10b 0b01 	add.w	fp, fp, #1
 8002196:	f105 0528 	add.w	r5, r5, #40	@ 0x28
 800219a:	f107 0704 	add.w	r7, r7, #4
 800219e:	d1c4      	bne.n	800212a <USBD_OTG_ISR_Handler+0x136>
 80021a0:	f8dd 8004 	ldr.w	r8, [sp, #4]
 80021a4:	2001      	movs	r0, #1
 80021a6:	e740      	b.n	800202a <USBD_OTG_ISR_Handler+0x36>
 80021a8:	4620      	mov	r0, r4
 80021aa:	f7ff fde1 	bl	8001d70 <USB_OTG_ReadDevAllOutEp_itr>
 80021ae:	4605      	mov	r5, r0
 80021b0:	2800      	cmp	r0, #0
 80021b2:	f000 8144 	beq.w	800243e <USBD_OTG_ISR_Handler+0x44a>
 80021b6:	f8df 90fc 	ldr.w	r9, [pc, #252]	@ 80022b4 <USBD_OTG_ISR_Handler+0x2c0>
 80021ba:	f8cd 8004 	str.w	r8, [sp, #4]
 80021be:	f104 0654 	add.w	r6, r4, #84	@ 0x54
 80021c2:	46a3      	mov	fp, r4
 80021c4:	2700      	movs	r7, #0
 80021c6:	f04f 0a02 	mov.w	sl, #2
 80021ca:	e008      	b.n	80021de <USBD_OTG_ISR_Handler+0x1ea>
 80021cc:	086d      	lsrs	r5, r5, #1
 80021ce:	f107 0701 	add.w	r7, r7, #1
 80021d2:	f106 0604 	add.w	r6, r6, #4
 80021d6:	f10b 0b28 	add.w	fp, fp, #40	@ 0x28
 80021da:	f000 812e 	beq.w	800243a <USBD_OTG_ISR_Handler+0x446>
 80021de:	07eb      	lsls	r3, r5, #31
 80021e0:	d5f4      	bpl.n	80021cc <USBD_OTG_ISR_Handler+0x1d8>
 80021e2:	fa5f f887 	uxtb.w	r8, r7
 80021e6:	4641      	mov	r1, r8
 80021e8:	4620      	mov	r0, r4
 80021ea:	f7ff fdc7 	bl	8001d7c <USB_OTG_ReadDevOutEP_itr>
 80021ee:	b2c3      	uxtb	r3, r0
 80021f0:	07c0      	lsls	r0, r0, #31
 80021f2:	f140 80c6 	bpl.w	8002382 <USBD_OTG_ISR_Handler+0x38e>
 80021f6:	6833      	ldr	r3, [r6, #0]
 80021f8:	2201      	movs	r2, #1
 80021fa:	609a      	str	r2, [r3, #8]
 80021fc:	78e2      	ldrb	r2, [r4, #3]
 80021fe:	2a01      	cmp	r2, #1
 8002200:	d107      	bne.n	8002212 <USBD_OTG_ISR_Handler+0x21e>
 8002202:	691a      	ldr	r2, [r3, #16]
 8002204:	f8db 3378 	ldr.w	r3, [fp, #888]	@ 0x378
 8002208:	f3c2 0212 	ubfx	r2, r2, #0, #19
 800220c:	1a9b      	subs	r3, r3, r2
 800220e:	f8cb 3388 	str.w	r3, [fp, #904]	@ 0x388
 8002212:	f8d9 3000 	ldr.w	r3, [r9]
 8002216:	4641      	mov	r1, r8
 8002218:	681b      	ldr	r3, [r3, #0]
 800221a:	4620      	mov	r0, r4
 800221c:	4798      	blx	r3
 800221e:	78e3      	ldrb	r3, [r4, #3]
 8002220:	2b01      	cmp	r3, #1
 8002222:	d1d3      	bne.n	80021cc <USBD_OTG_ISR_Handler+0x1d8>
 8002224:	2f00      	cmp	r7, #0
 8002226:	d1d1      	bne.n	80021cc <USBD_OTG_ISR_Handler+0x1d8>
 8002228:	f894 3111 	ldrb.w	r3, [r4, #273]	@ 0x111
 800222c:	2b05      	cmp	r3, #5
 800222e:	d1cd      	bne.n	80021cc <USBD_OTG_ISR_Handler+0x1d8>
 8002230:	4620      	mov	r0, r4
 8002232:	f7ff fdb1 	bl	8001d98 <USB_OTG_EP0_OutStart>
 8002236:	e7c9      	b.n	80021cc <USBD_OTG_ISR_Handler+0x1d8>
 8002238:	4620      	mov	r0, r4
 800223a:	f7ff fbd7 	bl	80019ec <USB_OTG_EP0Activate>
 800223e:	68e3      	ldr	r3, [r4, #12]
 8002240:	4620      	mov	r0, r4
 8002242:	68de      	ldr	r6, [r3, #12]
 8002244:	f7ff fbc4 	bl	80019d0 <USB_OTG_GetDeviceSpeed>
 8002248:	2803      	cmp	r0, #3
 800224a:	bf0c      	ite	eq
 800224c:	2209      	moveq	r2, #9
 800224e:	2205      	movne	r2, #5
 8002250:	f362 268d 	bfi	r6, r2, #10, #4
 8002254:	bf0c      	ite	eq
 8002256:	2200      	moveq	r2, #0
 8002258:	2201      	movne	r2, #1
 800225a:	70a2      	strb	r2, [r4, #2]
 800225c:	68e3      	ldr	r3, [r4, #12]
 800225e:	bf0c      	ite	eq
 8002260:	f44f 7200 	moveq.w	r2, #512	@ 0x200
 8002264:	2240      	movne	r2, #64	@ 0x40
 8002266:	80a2      	strh	r2, [r4, #4]
 8002268:	f44f 5200 	mov.w	r2, #8192	@ 0x2000
 800226c:	60de      	str	r6, [r3, #12]
 800226e:	2001      	movs	r0, #1
 8002270:	615a      	str	r2, [r3, #20]
 8002272:	e701      	b.n	8002078 <USBD_OTG_ISR_Handler+0x84>
 8002274:	4b0f      	ldr	r3, [pc, #60]	@ (80022b4 <USBD_OTG_ISR_Handler+0x2c0>)
 8002276:	681b      	ldr	r3, [r3, #0]
 8002278:	4620      	mov	r0, r4
 800227a:	695b      	ldr	r3, [r3, #20]
 800227c:	4798      	blx	r3
 800227e:	6923      	ldr	r3, [r4, #16]
 8002280:	6899      	ldr	r1, [r3, #8]
 8002282:	68e3      	ldr	r3, [r4, #12]
 8002284:	f44f 6200 	mov.w	r2, #2048	@ 0x800
 8002288:	615a      	str	r2, [r3, #20]
 800228a:	7aa3      	ldrb	r3, [r4, #10]
 800228c:	b183      	cbz	r3, 80022b0 <USBD_OTG_ISR_Handler+0x2bc>
 800228e:	07c8      	lsls	r0, r1, #31
 8002290:	d50e      	bpl.n	80022b0 <USBD_OTG_ISR_Handler+0x2bc>
 8002292:	f8d4 310c 	ldr.w	r3, [r4, #268]	@ 0x10c
 8002296:	4908      	ldr	r1, [pc, #32]	@ (80022b8 <USBD_OTG_ISR_Handler+0x2c4>)
 8002298:	681a      	ldr	r2, [r3, #0]
 800229a:	f042 0201 	orr.w	r2, r2, #1
 800229e:	601a      	str	r2, [r3, #0]
 80022a0:	681a      	ldr	r2, [r3, #0]
 80022a2:	f042 0203 	orr.w	r2, r2, #3
 80022a6:	601a      	str	r2, [r3, #0]
 80022a8:	690b      	ldr	r3, [r1, #16]
 80022aa:	f043 0306 	orr.w	r3, r3, #6
 80022ae:	610b      	str	r3, [r1, #16]
 80022b0:	2001      	movs	r0, #1
 80022b2:	e6ce      	b.n	8002052 <USBD_OTG_ISR_Handler+0x5e>
 80022b4:	200000b8 	.word	0x200000b8
 80022b8:	e000ed00 	.word	0xe000ed00
 80022bc:	6922      	ldr	r2, [r4, #16]
 80022be:	6853      	ldr	r3, [r2, #4]
 80022c0:	f04f 0800 	mov.w	r8, #0
 80022c4:	f023 0301 	bic.w	r3, r3, #1
 80022c8:	6053      	str	r3, [r2, #4]
 80022ca:	4641      	mov	r1, r8
 80022cc:	4620      	mov	r0, r4
 80022ce:	f7ff fa85 	bl	80017dc <USB_OTG_FlushTxFifo>
 80022d2:	7862      	ldrb	r2, [r4, #1]
 80022d4:	4641      	mov	r1, r8
 80022d6:	b15a      	cbz	r2, 80022f0 <USBD_OTG_ISR_Handler+0x2fc>
 80022d8:	f104 0314 	add.w	r3, r4, #20
 80022dc:	eb03 0c82 	add.w	ip, r3, r2, lsl #2
 80022e0:	22ff      	movs	r2, #255	@ 0xff
 80022e2:	f853 0f04 	ldr.w	r0, [r3, #4]!
 80022e6:	6082      	str	r2, [r0, #8]
 80022e8:	6bd8      	ldr	r0, [r3, #60]	@ 0x3c
 80022ea:	4563      	cmp	r3, ip
 80022ec:	6082      	str	r2, [r0, #8]
 80022ee:	d1f8      	bne.n	80022e2 <USBD_OTG_ISR_Handler+0x2ee>
 80022f0:	220f      	movs	r2, #15
 80022f2:	6923      	ldr	r3, [r4, #16]
 80022f4:	f362 0807 	bfi	r8, r2, #0, #8
 80022f8:	222f      	movs	r2, #47	@ 0x2f
 80022fa:	f362 0107 	bfi	r1, r2, #0, #8
 80022fe:	f04f 32ff 	mov.w	r2, #4294967295	@ 0xffffffff
 8002302:	619a      	str	r2, [r3, #24]
 8002304:	f04f 1201 	mov.w	r2, #65537	@ 0x10001
 8002308:	61da      	str	r2, [r3, #28]
 800230a:	f8c3 8014 	str.w	r8, [r3, #20]
 800230e:	6119      	str	r1, [r3, #16]
 8002310:	681a      	ldr	r2, [r3, #0]
 8002312:	f36f 120a 	bfc	r2, #4, #7
 8002316:	601a      	str	r2, [r3, #0]
 8002318:	4620      	mov	r0, r4
 800231a:	f7ff fd3d 	bl	8001d98 <USB_OTG_EP0_OutStart>
 800231e:	4b78      	ldr	r3, [pc, #480]	@ (8002500 <USBD_OTG_ISR_Handler+0x50c>)
 8002320:	68e2      	ldr	r2, [r4, #12]
 8002322:	681b      	ldr	r3, [r3, #0]
 8002324:	f44f 5180 	mov.w	r1, #4096	@ 0x1000
 8002328:	691b      	ldr	r3, [r3, #16]
 800232a:	6151      	str	r1, [r2, #20]
 800232c:	4620      	mov	r0, r4
 800232e:	4798      	blx	r3
 8002330:	2001      	movs	r0, #1
 8002332:	e69e      	b.n	8002072 <USBD_OTG_ISR_Handler+0x7e>
 8002334:	7aa3      	ldrb	r3, [r4, #10]
 8002336:	b143      	cbz	r3, 800234a <USBD_OTG_ISR_Handler+0x356>
 8002338:	f8d4 310c 	ldr.w	r3, [r4, #268]	@ 0x10c
 800233c:	f8d4 210c 	ldr.w	r2, [r4, #268]	@ 0x10c
 8002340:	f023 0103 	bic.w	r1, r3, #3
 8002344:	f361 0307 	bfi	r3, r1, #0, #8
 8002348:	6013      	str	r3, [r2, #0]
 800234a:	4b6d      	ldr	r3, [pc, #436]	@ (8002500 <USBD_OTG_ISR_Handler+0x50c>)
 800234c:	6922      	ldr	r2, [r4, #16]
 800234e:	681b      	ldr	r3, [r3, #0]
 8002350:	6999      	ldr	r1, [r3, #24]
 8002352:	6853      	ldr	r3, [r2, #4]
 8002354:	f023 0301 	bic.w	r3, r3, #1
 8002358:	6053      	str	r3, [r2, #4]
 800235a:	4620      	mov	r0, r4
 800235c:	4788      	blx	r1
 800235e:	68e3      	ldr	r3, [r4, #12]
 8002360:	f04f 4200 	mov.w	r2, #2147483648	@ 0x80000000
 8002364:	615a      	str	r2, [r3, #20]
 8002366:	2001      	movs	r0, #1
 8002368:	e66d      	b.n	8002046 <USBD_OTG_ISR_Handler+0x52>
 800236a:	0742      	lsls	r2, r0, #29
 800236c:	d50f      	bpl.n	800238e <USBD_OTG_ISR_Handler+0x39a>
 800236e:	683b      	ldr	r3, [r7, #0]
 8002370:	2204      	movs	r2, #4
 8002372:	609a      	str	r2, [r3, #8]
 8002374:	4616      	mov	r6, r2
 8002376:	07b3      	lsls	r3, r6, #30
 8002378:	d50e      	bpl.n	8002398 <USBD_OTG_ISR_Handler+0x3a4>
 800237a:	683b      	ldr	r3, [r7, #0]
 800237c:	2202      	movs	r2, #2
 800237e:	609a      	str	r2, [r3, #8]
 8002380:	e705      	b.n	800218e <USBD_OTG_ISR_Handler+0x19a>
 8002382:	0799      	lsls	r1, r3, #30
 8002384:	d553      	bpl.n	800242e <USBD_OTG_ISR_Handler+0x43a>
 8002386:	6833      	ldr	r3, [r6, #0]
 8002388:	f8c3 a008 	str.w	sl, [r3, #8]
 800238c:	e71e      	b.n	80021cc <USBD_OTG_ISR_Handler+0x1d8>
 800238e:	0703      	lsls	r3, r0, #28
 8002390:	d547      	bpl.n	8002422 <USBD_OTG_ISR_Handler+0x42e>
 8002392:	683a      	ldr	r2, [r7, #0]
 8002394:	2608      	movs	r6, #8
 8002396:	6096      	str	r6, [r2, #8]
 8002398:	0636      	lsls	r6, r6, #24
 800239a:	f57f aef8 	bpl.w	800218e <USBD_OTG_ISR_Handler+0x19a>
 800239e:	f8d7 c000 	ldr.w	ip, [r7]
 80023a2:	f8d5 3120 	ldr.w	r3, [r5, #288]	@ 0x120
 80023a6:	f8dc 6018 	ldr.w	r6, [ip, #24]
 80023aa:	e9d5 024b 	ldrd	r0, r2, [r5, #300]	@ 0x12c
 80023ae:	fa1f fe86 	uxth.w	lr, r6
 80023b2:	1a86      	subs	r6, r0, r2
 80023b4:	42b3      	cmp	r3, r6
 80023b6:	bf28      	it	cs
 80023b8:	4633      	movcs	r3, r6
 80023ba:	3303      	adds	r3, #3
 80023bc:	ebbe 0f93 	cmp.w	lr, r3, lsr #2
 80023c0:	4666      	mov	r6, ip
 80023c2:	bf88      	it	hi
 80023c4:	4661      	movhi	r1, ip
 80023c6:	d824      	bhi.n	8002412 <USBD_OTG_ISR_Handler+0x41e>
 80023c8:	e028      	b.n	800241c <USBD_OTG_ISR_Handler+0x428>
 80023ca:	f8d5 3120 	ldr.w	r3, [r5, #288]	@ 0x120
 80023ce:	f8d5 1124 	ldr.w	r1, [r5, #292]	@ 0x124
 80023d2:	429e      	cmp	r6, r3
 80023d4:	bf28      	it	cs
 80023d6:	461e      	movcs	r6, r3
 80023d8:	b2b3      	uxth	r3, r6
 80023da:	4642      	mov	r2, r8
 80023dc:	4620      	mov	r0, r4
 80023de:	f7ff f8bf 	bl	8001560 <USB_OTG_WritePacket>
 80023e2:	f8d5 2130 	ldr.w	r2, [r5, #304]	@ 0x130
 80023e6:	f8d5 3124 	ldr.w	r3, [r5, #292]	@ 0x124
 80023ea:	f8d5 012c 	ldr.w	r0, [r5, #300]	@ 0x12c
 80023ee:	4432      	add	r2, r6
 80023f0:	f106 0a03 	add.w	sl, r6, #3
 80023f4:	4433      	add	r3, r6
 80023f6:	4282      	cmp	r2, r0
 80023f8:	ea4f 0a9a 	mov.w	sl, sl, lsr #2
 80023fc:	f8c5 3124 	str.w	r3, [r5, #292]	@ 0x124
 8002400:	f8c5 2130 	str.w	r2, [r5, #304]	@ 0x130
 8002404:	d267      	bcs.n	80024d6 <USBD_OTG_ISR_Handler+0x4e2>
 8002406:	6839      	ldr	r1, [r7, #0]
 8002408:	698b      	ldr	r3, [r1, #24]
 800240a:	b29b      	uxth	r3, r3
 800240c:	459a      	cmp	sl, r3
 800240e:	460e      	mov	r6, r1
 8002410:	d204      	bcs.n	800241c <USBD_OTG_ISR_Handler+0x428>
 8002412:	4282      	cmp	r2, r0
 8002414:	eba0 0602 	sub.w	r6, r0, r2
 8002418:	d3d7      	bcc.n	80023ca <USBD_OTG_ISR_Handler+0x3d6>
 800241a:	460e      	mov	r6, r1
 800241c:	2380      	movs	r3, #128	@ 0x80
 800241e:	60b3      	str	r3, [r6, #8]
 8002420:	e6b5      	b.n	800218e <USBD_OTG_ISR_Handler+0x19a>
 8002422:	06c6      	lsls	r6, r0, #27
 8002424:	d562      	bpl.n	80024ec <USBD_OTG_ISR_Handler+0x4f8>
 8002426:	683b      	ldr	r3, [r7, #0]
 8002428:	2210      	movs	r2, #16
 800242a:	609a      	str	r2, [r3, #8]
 800242c:	e6af      	b.n	800218e <USBD_OTG_ISR_Handler+0x19a>
 800242e:	075a      	lsls	r2, r3, #29
 8002430:	d507      	bpl.n	8002442 <USBD_OTG_ISR_Handler+0x44e>
 8002432:	6833      	ldr	r3, [r6, #0]
 8002434:	2204      	movs	r2, #4
 8002436:	609a      	str	r2, [r3, #8]
 8002438:	e6c8      	b.n	80021cc <USBD_OTG_ISR_Handler+0x1d8>
 800243a:	f8dd 8004 	ldr.w	r8, [sp, #4]
 800243e:	2001      	movs	r0, #1
 8002440:	e5f0      	b.n	8002024 <USBD_OTG_ISR_Handler+0x30>
 8002442:	0718      	lsls	r0, r3, #28
 8002444:	f57f aec2 	bpl.w	80021cc <USBD_OTG_ISR_Handler+0x1d8>
 8002448:	f8d9 3000 	ldr.w	r3, [r9]
 800244c:	4620      	mov	r0, r4
 800244e:	689b      	ldr	r3, [r3, #8]
 8002450:	4798      	blx	r3
 8002452:	6833      	ldr	r3, [r6, #0]
 8002454:	2208      	movs	r2, #8
 8002456:	609a      	str	r2, [r3, #8]
 8002458:	e6b8      	b.n	80021cc <USBD_OTG_ISR_Handler+0x1d8>
 800245a:	eb09 0989 	add.w	r9, r9, r9, lsl #2
 800245e:	eb04 09c9 	add.w	r9, r4, r9, lsl #3
 8002462:	2208      	movs	r2, #8
 8002464:	f504 61b9 	add.w	r1, r4, #1480	@ 0x5c8
 8002468:	4620      	mov	r0, r4
 800246a:	f7ff f88d 	bl	8001588 <USB_OTG_ReadPacket>
 800246e:	f8d9 3388 	ldr.w	r3, [r9, #904]	@ 0x388
 8002472:	f3c8 180a 	ubfx	r8, r8, #4, #11
 8002476:	4443      	add	r3, r8
 8002478:	f8c9 3388 	str.w	r3, [r9, #904]	@ 0x388
 800247c:	68e3      	ldr	r3, [r4, #12]
 800247e:	e641      	b.n	8002104 <USBD_OTG_ISR_Handler+0x110>
 8002480:	f647 72f0 	movw	r2, #32752	@ 0x7ff0
 8002484:	ea12 0f08 	tst.w	r2, r8
 8002488:	f43f ae3c 	beq.w	8002104 <USBD_OTG_ISR_Handler+0x110>
 800248c:	eb09 0989 	add.w	r9, r9, r9, lsl #2
 8002490:	eb04 09c9 	add.w	r9, r4, r9, lsl #3
 8002494:	f3c8 180a 	ubfx	r8, r8, #4, #11
 8002498:	f8d9 137c 	ldr.w	r1, [r9, #892]	@ 0x37c
 800249c:	4642      	mov	r2, r8
 800249e:	4620      	mov	r0, r4
 80024a0:	f7ff f872 	bl	8001588 <USB_OTG_ReadPacket>
 80024a4:	f8d9 337c 	ldr.w	r3, [r9, #892]	@ 0x37c
 80024a8:	4443      	add	r3, r8
 80024aa:	f8c9 337c 	str.w	r3, [r9, #892]	@ 0x37c
 80024ae:	f8d9 3388 	ldr.w	r3, [r9, #904]	@ 0x388
 80024b2:	4443      	add	r3, r8
 80024b4:	f8c9 3388 	str.w	r3, [r9, #904]	@ 0x388
 80024b8:	68e3      	ldr	r3, [r4, #12]
 80024ba:	e623      	b.n	8002104 <USBD_OTG_ISR_Handler+0x110>
 80024bc:	f1bb 0f00 	cmp.w	fp, #0
 80024c0:	f47f ae5f 	bne.w	8002182 <USBD_OTG_ISR_Handler+0x18e>
 80024c4:	f894 3111 	ldrb.w	r3, [r4, #273]	@ 0x111
 80024c8:	2b04      	cmp	r3, #4
 80024ca:	f47f ae5a 	bne.w	8002182 <USBD_OTG_ISR_Handler+0x18e>
 80024ce:	4620      	mov	r0, r4
 80024d0:	f7ff fc62 	bl	8001d98 <USB_OTG_EP0_OutStart>
 80024d4:	e655      	b.n	8002182 <USBD_OTG_ISR_Handler+0x18e>
 80024d6:	6921      	ldr	r1, [r4, #16]
 80024d8:	f895 0118 	ldrb.w	r0, [r5, #280]	@ 0x118
 80024dc:	6b4b      	ldr	r3, [r1, #52]	@ 0x34
 80024de:	683e      	ldr	r6, [r7, #0]
 80024e0:	2201      	movs	r2, #1
 80024e2:	4082      	lsls	r2, r0
 80024e4:	ea23 0302 	bic.w	r3, r3, r2
 80024e8:	634b      	str	r3, [r1, #52]	@ 0x34
 80024ea:	e797      	b.n	800241c <USBD_OTG_ISR_Handler+0x428>
 80024ec:	0681      	lsls	r1, r0, #26
 80024ee:	bf58      	it	pl
 80024f0:	4606      	movpl	r6, r0
 80024f2:	f57f ae46 	bpl.w	8002182 <USBD_OTG_ISR_Handler+0x18e>
 80024f6:	683b      	ldr	r3, [r7, #0]
 80024f8:	2220      	movs	r2, #32
 80024fa:	609a      	str	r2, [r3, #8]
 80024fc:	e647      	b.n	800218e <USBD_OTG_ISR_Handler+0x19a>
 80024fe:	bf00      	nop
 8002500:	200000b8 	.word	0x200000b8

08002504 <usbd_cdc_EP0_RxReady>:
 8002504:	b510      	push	{r4, lr}
 8002506:	4c07      	ldr	r4, [pc, #28]	@ (8002524 <usbd_cdc_EP0_RxReady+0x20>)
 8002508:	6820      	ldr	r0, [r4, #0]
 800250a:	28ff      	cmp	r0, #255	@ 0xff
 800250c:	d007      	beq.n	800251e <usbd_cdc_EP0_RxReady+0x1a>
 800250e:	4a06      	ldr	r2, [pc, #24]	@ (8002528 <usbd_cdc_EP0_RxReady+0x24>)
 8002510:	4b06      	ldr	r3, [pc, #24]	@ (800252c <usbd_cdc_EP0_RxReady+0x28>)
 8002512:	6812      	ldr	r2, [r2, #0]
 8002514:	689b      	ldr	r3, [r3, #8]
 8002516:	4906      	ldr	r1, [pc, #24]	@ (8002530 <usbd_cdc_EP0_RxReady+0x2c>)
 8002518:	4798      	blx	r3
 800251a:	23ff      	movs	r3, #255	@ 0xff
 800251c:	6023      	str	r3, [r4, #0]
 800251e:	2000      	movs	r0, #0
 8002520:	bd10      	pop	{r4, pc}
 8002522:	bf00      	nop
 8002524:	20000054 	.word	0x20000054
 8002528:	200008e4 	.word	0x200008e4
 800252c:	2000009c 	.word	0x2000009c
 8002530:	200008f8 	.word	0x200008f8

08002534 <USBD_cdc_GetCfgDesc>:
 8002534:	2343      	movs	r3, #67	@ 0x43
 8002536:	4801      	ldr	r0, [pc, #4]	@ (800253c <USBD_cdc_GetCfgDesc+0x8>)
 8002538:	800b      	strh	r3, [r1, #0]
 800253a:	4770      	bx	lr
 800253c:	20000058 	.word	0x20000058

08002540 <usbd_cdc_SOF>:
 8002540:	4a1f      	ldr	r2, [pc, #124]	@ (80025c0 <usbd_cdc_SOF+0x80>)
 8002542:	6813      	ldr	r3, [r2, #0]
 8002544:	2b05      	cmp	r3, #5
 8002546:	b570      	push	{r4, r5, r6, lr}
 8002548:	f103 0101 	add.w	r1, r3, #1
 800254c:	d002      	beq.n	8002554 <usbd_cdc_SOF+0x14>
 800254e:	6011      	str	r1, [r2, #0]
 8002550:	2000      	movs	r0, #0
 8002552:	bd70      	pop	{r4, r5, r6, pc}
 8002554:	4d1b      	ldr	r5, [pc, #108]	@ (80025c4 <usbd_cdc_SOF+0x84>)
 8002556:	7829      	ldrb	r1, [r5, #0]
 8002558:	2300      	movs	r3, #0
 800255a:	2901      	cmp	r1, #1
 800255c:	6013      	str	r3, [r2, #0]
 800255e:	d0f7      	beq.n	8002550 <usbd_cdc_SOF+0x10>
 8002560:	4e19      	ldr	r6, [pc, #100]	@ (80025c8 <usbd_cdc_SOF+0x88>)
 8002562:	4a1a      	ldr	r2, [pc, #104]	@ (80025cc <usbd_cdc_SOF+0x8c>)
 8002564:	6831      	ldr	r1, [r6, #0]
 8002566:	6814      	ldr	r4, [r2, #0]
 8002568:	f5b1 6f00 	cmp.w	r1, #2048	@ 0x800
 800256c:	d01f      	beq.n	80025ae <usbd_cdc_SOF+0x6e>
 800256e:	42a1      	cmp	r1, r4
 8002570:	d022      	beq.n	80025b8 <usbd_cdc_SOF+0x78>
 8002572:	4a17      	ldr	r2, [pc, #92]	@ (80025d0 <usbd_cdc_SOF+0x90>)
 8002574:	bf98      	it	ls
 8002576:	1a64      	subls	r4, r4, r1
 8002578:	fa12 f281 	uxtah	r2, r2, r1
 800257c:	bf88      	it	hi
 800257e:	f5c1 6400 	rsbhi	r4, r1, #2048	@ 0x800
 8002582:	f8d0 35ec 	ldr.w	r3, [r0, #1516]	@ 0x5ec
 8002586:	f8b3 3039 	ldrh.w	r3, [r3, #57]	@ 0x39
 800258a:	42a3      	cmp	r3, r4
 800258c:	d20b      	bcs.n	80025a6 <usbd_cdc_SOF+0x66>
 800258e:	4419      	add	r1, r3
 8002590:	1ae4      	subs	r4, r4, r3
 8002592:	6031      	str	r1, [r6, #0]
 8002594:	490f      	ldr	r1, [pc, #60]	@ (80025d4 <usbd_cdc_SOF+0x94>)
 8002596:	600c      	str	r4, [r1, #0]
 8002598:	2101      	movs	r1, #1
 800259a:	7029      	strb	r1, [r5, #0]
 800259c:	2181      	movs	r1, #129	@ 0x81
 800259e:	f7ff fcc7 	bl	8001f30 <DCD_EP_Tx>
 80025a2:	2000      	movs	r0, #0
 80025a4:	bd70      	pop	{r4, r5, r6, pc}
 80025a6:	4421      	add	r1, r4
 80025a8:	4623      	mov	r3, r4
 80025aa:	2400      	movs	r4, #0
 80025ac:	e7f1      	b.n	8002592 <usbd_cdc_SOF+0x52>
 80025ae:	6033      	str	r3, [r6, #0]
 80025b0:	b114      	cbz	r4, 80025b8 <usbd_cdc_SOF+0x78>
 80025b2:	4a07      	ldr	r2, [pc, #28]	@ (80025d0 <usbd_cdc_SOF+0x90>)
 80025b4:	4619      	mov	r1, r3
 80025b6:	e7e4      	b.n	8002582 <usbd_cdc_SOF+0x42>
 80025b8:	2300      	movs	r3, #0
 80025ba:	702b      	strb	r3, [r5, #0]
 80025bc:	e7c8      	b.n	8002550 <usbd_cdc_SOF+0x10>
 80025be:	bf00      	nop
 80025c0:	200008e0 	.word	0x200008e0
 80025c4:	200008e8 	.word	0x200008e8
 80025c8:	200008f0 	.word	0x200008f0
 80025cc:	200008f4 	.word	0x200008f4
 80025d0:	20000900 	.word	0x20000900
 80025d4:	200008ec 	.word	0x200008ec

080025d8 <usbd_cdc_DataOut>:
 80025d8:	eb01 0181 	add.w	r1, r1, r1, lsl #2
 80025dc:	b538      	push	{r3, r4, r5, lr}
 80025de:	eb00 01c1 	add.w	r1, r0, r1, lsl #3
 80025e2:	4d09      	ldr	r5, [pc, #36]	@ (8002608 <usbd_cdc_DataOut+0x30>)
 80025e4:	4b09      	ldr	r3, [pc, #36]	@ (800260c <usbd_cdc_DataOut+0x34>)
 80025e6:	f8b1 1388 	ldrh.w	r1, [r1, #904]	@ 0x388
 80025ea:	691b      	ldr	r3, [r3, #16]
 80025ec:	4604      	mov	r4, r0
 80025ee:	4628      	mov	r0, r5
 80025f0:	4798      	blx	r3
 80025f2:	f8d4 35ec 	ldr.w	r3, [r4, #1516]	@ 0x5ec
 80025f6:	462a      	mov	r2, r5
 80025f8:	f8b3 3040 	ldrh.w	r3, [r3, #64]	@ 0x40
 80025fc:	2101      	movs	r1, #1
 80025fe:	4620      	mov	r0, r4
 8002600:	f7ff fc70 	bl	8001ee4 <DCD_EP_PrepareRx>
 8002604:	2000      	movs	r0, #0
 8002606:	bd38      	pop	{r3, r4, r5, pc}
 8002608:	20001100 	.word	0x20001100
 800260c:	2000009c 	.word	0x2000009c

08002610 <usbd_cdc_Setup>:
 8002610:	b570      	push	{r4, r5, r6, lr}
 8002612:	780b      	ldrb	r3, [r1, #0]
 8002614:	f013 0260 	ands.w	r2, r3, #96	@ 0x60
 8002618:	460c      	mov	r4, r1
 800261a:	4605      	mov	r5, r0
 800261c:	d011      	beq.n	8002642 <usbd_cdc_Setup+0x32>
 800261e:	2a20      	cmp	r2, #32
 8002620:	d118      	bne.n	8002654 <usbd_cdc_Setup+0x44>
 8002622:	88ca      	ldrh	r2, [r1, #6]
 8002624:	784e      	ldrb	r6, [r1, #1]
 8002626:	b1ca      	cbz	r2, 800265c <usbd_cdc_Setup+0x4c>
 8002628:	061b      	lsls	r3, r3, #24
 800262a:	d534      	bpl.n	8002696 <usbd_cdc_Setup+0x86>
 800262c:	4b1f      	ldr	r3, [pc, #124]	@ (80026ac <usbd_cdc_Setup+0x9c>)
 800262e:	4920      	ldr	r1, [pc, #128]	@ (80026b0 <usbd_cdc_Setup+0xa0>)
 8002630:	689b      	ldr	r3, [r3, #8]
 8002632:	4630      	mov	r0, r6
 8002634:	4798      	blx	r3
 8002636:	88e2      	ldrh	r2, [r4, #6]
 8002638:	491d      	ldr	r1, [pc, #116]	@ (80026b0 <usbd_cdc_Setup+0xa0>)
 800263a:	4628      	mov	r0, r5
 800263c:	f000 fafe 	bl	8002c3c <USBD_CtlSendData>
 8002640:	e006      	b.n	8002650 <usbd_cdc_Setup+0x40>
 8002642:	784b      	ldrb	r3, [r1, #1]
 8002644:	2b0a      	cmp	r3, #10
 8002646:	d00f      	beq.n	8002668 <usbd_cdc_Setup+0x58>
 8002648:	2b0b      	cmp	r3, #11
 800264a:	d01f      	beq.n	800268c <usbd_cdc_Setup+0x7c>
 800264c:	2b06      	cmp	r3, #6
 800264e:	d010      	beq.n	8002672 <usbd_cdc_Setup+0x62>
 8002650:	2000      	movs	r0, #0
 8002652:	bd70      	pop	{r4, r5, r6, pc}
 8002654:	f000 fd70 	bl	8003138 <USBD_CtlError>
 8002658:	2002      	movs	r0, #2
 800265a:	bd70      	pop	{r4, r5, r6, pc}
 800265c:	4b13      	ldr	r3, [pc, #76]	@ (80026ac <usbd_cdc_Setup+0x9c>)
 800265e:	4611      	mov	r1, r2
 8002660:	689b      	ldr	r3, [r3, #8]
 8002662:	4630      	mov	r0, r6
 8002664:	4798      	blx	r3
 8002666:	e7f3      	b.n	8002650 <usbd_cdc_Setup+0x40>
 8002668:	4912      	ldr	r1, [pc, #72]	@ (80026b4 <usbd_cdc_Setup+0xa4>)
 800266a:	2201      	movs	r2, #1
 800266c:	f000 fae6 	bl	8002c3c <USBD_CtlSendData>
 8002670:	e7ee      	b.n	8002650 <usbd_cdc_Setup+0x40>
 8002672:	884b      	ldrh	r3, [r1, #2]
 8002674:	0a1b      	lsrs	r3, r3, #8
 8002676:	2b21      	cmp	r3, #33	@ 0x21
 8002678:	d103      	bne.n	8002682 <usbd_cdc_Setup+0x72>
 800267a:	88ca      	ldrh	r2, [r1, #6]
 800267c:	2a3a      	cmp	r2, #58	@ 0x3a
 800267e:	bf28      	it	cs
 8002680:	223a      	movcs	r2, #58	@ 0x3a
 8002682:	490d      	ldr	r1, [pc, #52]	@ (80026b8 <usbd_cdc_Setup+0xa8>)
 8002684:	4628      	mov	r0, r5
 8002686:	f000 fad9 	bl	8002c3c <USBD_CtlSendData>
 800268a:	e7e1      	b.n	8002650 <usbd_cdc_Setup+0x40>
 800268c:	788b      	ldrb	r3, [r1, #2]
 800268e:	b953      	cbnz	r3, 80026a6 <usbd_cdc_Setup+0x96>
 8002690:	4a08      	ldr	r2, [pc, #32]	@ (80026b4 <usbd_cdc_Setup+0xa4>)
 8002692:	6013      	str	r3, [r2, #0]
 8002694:	e7dc      	b.n	8002650 <usbd_cdc_Setup+0x40>
 8002696:	4909      	ldr	r1, [pc, #36]	@ (80026bc <usbd_cdc_Setup+0xac>)
 8002698:	4b09      	ldr	r3, [pc, #36]	@ (80026c0 <usbd_cdc_Setup+0xb0>)
 800269a:	600e      	str	r6, [r1, #0]
 800269c:	4904      	ldr	r1, [pc, #16]	@ (80026b0 <usbd_cdc_Setup+0xa0>)
 800269e:	601a      	str	r2, [r3, #0]
 80026a0:	f000 fae4 	bl	8002c6c <USBD_CtlPrepareRx>
 80026a4:	e7d4      	b.n	8002650 <usbd_cdc_Setup+0x40>
 80026a6:	f000 fd47 	bl	8003138 <USBD_CtlError>
 80026aa:	e7d1      	b.n	8002650 <usbd_cdc_Setup+0x40>
 80026ac:	2000009c 	.word	0x2000009c
 80026b0:	200008f8 	.word	0x200008f8
 80026b4:	20001140 	.word	0x20001140
 80026b8:	2000006a 	.word	0x2000006a
 80026bc:	20000054 	.word	0x20000054
 80026c0:	200008e4 	.word	0x200008e4

080026c4 <usbd_cdc_DeInit>:
 80026c4:	b510      	push	{r4, lr}
 80026c6:	2181      	movs	r1, #129	@ 0x81
 80026c8:	4604      	mov	r4, r0
 80026ca:	f7ff fbf1 	bl	8001eb0 <DCD_EP_Close>
 80026ce:	2101      	movs	r1, #1
 80026d0:	4620      	mov	r0, r4
 80026d2:	f7ff fbed 	bl	8001eb0 <DCD_EP_Close>
 80026d6:	2182      	movs	r1, #130	@ 0x82
 80026d8:	4620      	mov	r0, r4
 80026da:	f7ff fbe9 	bl	8001eb0 <DCD_EP_Close>
 80026de:	4b02      	ldr	r3, [pc, #8]	@ (80026e8 <usbd_cdc_DeInit+0x24>)
 80026e0:	685b      	ldr	r3, [r3, #4]
 80026e2:	4798      	blx	r3
 80026e4:	2000      	movs	r0, #0
 80026e6:	bd10      	pop	{r4, pc}
 80026e8:	2000009c 	.word	0x2000009c

080026ec <usbd_cdc_Init>:
 80026ec:	f8d0 25ec 	ldr.w	r2, [r0, #1516]	@ 0x5ec
 80026f0:	b510      	push	{r4, lr}
 80026f2:	4604      	mov	r4, r0
 80026f4:	f8b2 2039 	ldrh.w	r2, [r2, #57]	@ 0x39
 80026f8:	2302      	movs	r3, #2
 80026fa:	2181      	movs	r1, #129	@ 0x81
 80026fc:	f7ff fba2 	bl	8001e44 <DCD_EP_Open>
 8002700:	f8d4 25ec 	ldr.w	r2, [r4, #1516]	@ 0x5ec
 8002704:	2302      	movs	r3, #2
 8002706:	f8b2 2040 	ldrh.w	r2, [r2, #64]	@ 0x40
 800270a:	2101      	movs	r1, #1
 800270c:	4620      	mov	r0, r4
 800270e:	f7ff fb99 	bl	8001e44 <DCD_EP_Open>
 8002712:	2303      	movs	r3, #3
 8002714:	2208      	movs	r2, #8
 8002716:	2182      	movs	r1, #130	@ 0x82
 8002718:	4620      	mov	r0, r4
 800271a:	f7ff fb93 	bl	8001e44 <DCD_EP_Open>
 800271e:	4a08      	ldr	r2, [pc, #32]	@ (8002740 <usbd_cdc_Init+0x54>)
 8002720:	4b08      	ldr	r3, [pc, #32]	@ (8002744 <usbd_cdc_Init+0x58>)
 8002722:	2102      	movs	r1, #2
 8002724:	8091      	strh	r1, [r2, #4]
 8002726:	681b      	ldr	r3, [r3, #0]
 8002728:	4798      	blx	r3
 800272a:	f8d4 35ec 	ldr.w	r3, [r4, #1516]	@ 0x5ec
 800272e:	4a06      	ldr	r2, [pc, #24]	@ (8002748 <usbd_cdc_Init+0x5c>)
 8002730:	f8b3 3040 	ldrh.w	r3, [r3, #64]	@ 0x40
 8002734:	2101      	movs	r1, #1
 8002736:	4620      	mov	r0, r4
 8002738:	f7ff fbd4 	bl	8001ee4 <DCD_EP_PrepareRx>
 800273c:	2000      	movs	r0, #0
 800273e:	bd10      	pop	{r4, pc}
 8002740:	200000ec 	.word	0x200000ec
 8002744:	2000009c 	.word	0x2000009c
 8002748:	20001100 	.word	0x20001100

0800274c <usbd_cdc_DataIn>:
 800274c:	b570      	push	{r4, r5, r6, lr}
 800274e:	4b12      	ldr	r3, [pc, #72]	@ (8002798 <usbd_cdc_DataIn+0x4c>)
 8002750:	781a      	ldrb	r2, [r3, #0]
 8002752:	2a01      	cmp	r2, #1
 8002754:	d001      	beq.n	800275a <usbd_cdc_DataIn+0xe>
 8002756:	2000      	movs	r0, #0
 8002758:	bd70      	pop	{r4, r5, r6, pc}
 800275a:	4c10      	ldr	r4, [pc, #64]	@ (800279c <usbd_cdc_DataIn+0x50>)
 800275c:	6821      	ldr	r1, [r4, #0]
 800275e:	b199      	cbz	r1, 8002788 <usbd_cdc_DataIn+0x3c>
 8002760:	f8d0 35ec 	ldr.w	r3, [r0, #1516]	@ 0x5ec
 8002764:	4d0e      	ldr	r5, [pc, #56]	@ (80027a0 <usbd_cdc_DataIn+0x54>)
 8002766:	f8b3 3039 	ldrh.w	r3, [r3, #57]	@ 0x39
 800276a:	682a      	ldr	r2, [r5, #0]
 800276c:	4299      	cmp	r1, r3
 800276e:	d90e      	bls.n	800278e <usbd_cdc_DataIn+0x42>
 8002770:	1ac9      	subs	r1, r1, r3
 8002772:	18d6      	adds	r6, r2, r3
 8002774:	6021      	str	r1, [r4, #0]
 8002776:	4c0b      	ldr	r4, [pc, #44]	@ (80027a4 <usbd_cdc_DataIn+0x58>)
 8002778:	602e      	str	r6, [r5, #0]
 800277a:	2181      	movs	r1, #129	@ 0x81
 800277c:	fa14 f282 	uxtah	r2, r4, r2
 8002780:	f7ff fbd6 	bl	8001f30 <DCD_EP_Tx>
 8002784:	2000      	movs	r0, #0
 8002786:	bd70      	pop	{r4, r5, r6, pc}
 8002788:	7019      	strb	r1, [r3, #0]
 800278a:	2000      	movs	r0, #0
 800278c:	bd70      	pop	{r4, r5, r6, pc}
 800278e:	1856      	adds	r6, r2, r1
 8002790:	460b      	mov	r3, r1
 8002792:	2100      	movs	r1, #0
 8002794:	e7ee      	b.n	8002774 <usbd_cdc_DataIn+0x28>
 8002796:	bf00      	nop
 8002798:	200008e8 	.word	0x200008e8
 800279c:	200008ec 	.word	0x200008ec
 80027a0:	200008f0 	.word	0x200008f0
 80027a4:	20000900 	.word	0x20000900

080027a8 <VCP_Init>:
 80027a8:	2000      	movs	r0, #0
 80027aa:	4770      	bx	lr

080027ac <VCP_Ctrl>:
 80027ac:	2820      	cmp	r0, #32
 80027ae:	b410      	push	{r4}
 80027b0:	d015      	beq.n	80027de <VCP_Ctrl+0x32>
 80027b2:	2821      	cmp	r0, #33	@ 0x21
 80027b4:	d10f      	bne.n	80027d6 <VCP_Ctrl+0x2a>
 80027b6:	4b11      	ldr	r3, [pc, #68]	@ (80027fc <VCP_Ctrl+0x50>)
 80027b8:	681a      	ldr	r2, [r3, #0]
 80027ba:	700a      	strb	r2, [r1, #0]
 80027bc:	681a      	ldr	r2, [r3, #0]
 80027be:	0a12      	lsrs	r2, r2, #8
 80027c0:	704a      	strb	r2, [r1, #1]
 80027c2:	885a      	ldrh	r2, [r3, #2]
 80027c4:	708a      	strb	r2, [r1, #2]
 80027c6:	78da      	ldrb	r2, [r3, #3]
 80027c8:	70ca      	strb	r2, [r1, #3]
 80027ca:	791a      	ldrb	r2, [r3, #4]
 80027cc:	710a      	strb	r2, [r1, #4]
 80027ce:	795a      	ldrb	r2, [r3, #5]
 80027d0:	714a      	strb	r2, [r1, #5]
 80027d2:	799b      	ldrb	r3, [r3, #6]
 80027d4:	718b      	strb	r3, [r1, #6]
 80027d6:	2000      	movs	r0, #0
 80027d8:	f85d 4b04 	ldr.w	r4, [sp], #4
 80027dc:	4770      	bx	lr
 80027de:	4b07      	ldr	r3, [pc, #28]	@ (80027fc <VCP_Ctrl+0x50>)
 80027e0:	f891 c004 	ldrb.w	ip, [r1, #4]
 80027e4:	7948      	ldrb	r0, [r1, #5]
 80027e6:	798a      	ldrb	r2, [r1, #6]
 80027e8:	680c      	ldr	r4, [r1, #0]
 80027ea:	7158      	strb	r0, [r3, #5]
 80027ec:	f883 c004 	strb.w	ip, [r3, #4]
 80027f0:	719a      	strb	r2, [r3, #6]
 80027f2:	601c      	str	r4, [r3, #0]
 80027f4:	2000      	movs	r0, #0
 80027f6:	f85d 4b04 	ldr.w	r4, [sp], #4
 80027fa:	4770      	bx	lr
 80027fc:	200000b0 	.word	0x200000b0

08002800 <VCP_DataTx>:
 8002800:	b510      	push	{r4, lr}
 8002802:	b199      	cbz	r1, 800282c <VCP_DataTx+0x2c>
 8002804:	eb00 0e01 	add.w	lr, r0, r1
 8002808:	4c09      	ldr	r4, [pc, #36]	@ (8002830 <VCP_DataTx+0x30>)
 800280a:	490a      	ldr	r1, [pc, #40]	@ (8002834 <VCP_DataTx+0x34>)
 800280c:	3801      	subs	r0, #1
 800280e:	f10e 3eff 	add.w	lr, lr, #4294967295	@ 0xffffffff
 8002812:	680a      	ldr	r2, [r1, #0]
 8002814:	f810 cf01 	ldrb.w	ip, [r0, #1]!
 8002818:	f804 c002 	strb.w	ip, [r4, r2]
 800281c:	1c53      	adds	r3, r2, #1
 800281e:	f5b3 6f00 	cmp.w	r3, #2048	@ 0x800
 8002822:	bf08      	it	eq
 8002824:	2300      	moveq	r3, #0
 8002826:	4586      	cmp	lr, r0
 8002828:	600b      	str	r3, [r1, #0]
 800282a:	d1f2      	bne.n	8002812 <VCP_DataTx+0x12>
 800282c:	2000      	movs	r0, #0
 800282e:	bd10      	pop	{r4, pc}
 8002830:	20000900 	.word	0x20000900
 8002834:	200008f4 	.word	0x200008f4

08002838 <VCP_DataRx>:
 8002838:	b570      	push	{r4, r5, r6, lr}
 800283a:	b1e9      	cbz	r1, 8002878 <VCP_DataRx+0x40>
 800283c:	4b0f      	ldr	r3, [pc, #60]	@ (800287c <VCP_DataRx+0x44>)
 800283e:	4c10      	ldr	r4, [pc, #64]	@ (8002880 <VCP_DataRx+0x48>)
 8002840:	681e      	ldr	r6, [r3, #0]
 8002842:	6822      	ldr	r2, [r4, #0]
 8002844:	4d0f      	ldr	r5, [pc, #60]	@ (8002884 <VCP_DataRx+0x4c>)
 8002846:	4401      	add	r1, r0
 8002848:	f101 3eff 	add.w	lr, r1, #4294967295	@ 0xffffffff
 800284c:	3801      	subs	r0, #1
 800284e:	e002      	b.n	8002856 <VCP_DataRx+0x1e>
 8002850:	4570      	cmp	r0, lr
 8002852:	461a      	mov	r2, r3
 8002854:	d010      	beq.n	8002878 <VCP_DataRx+0x40>
 8002856:	1c53      	adds	r3, r2, #1
 8002858:	f5b3 6f80 	cmp.w	r3, #1024	@ 0x400
 800285c:	bf04      	itt	eq
 800285e:	2100      	moveq	r1, #0
 8002860:	460b      	moveq	r3, r1
 8002862:	f810 cf01 	ldrb.w	ip, [r0, #1]!
 8002866:	f805 c002 	strb.w	ip, [r5, r2]
 800286a:	bf18      	it	ne
 800286c:	4619      	movne	r1, r3
 800286e:	429e      	cmp	r6, r3
 8002870:	6021      	str	r1, [r4, #0]
 8002872:	d1ed      	bne.n	8002850 <VCP_DataRx+0x18>
 8002874:	2002      	movs	r0, #2
 8002876:	bd70      	pop	{r4, r5, r6, pc}
 8002878:	2000      	movs	r0, #0
 800287a:	bd70      	pop	{r4, r5, r6, pc}
 800287c:	20001144 	.word	0x20001144
 8002880:	20001148 	.word	0x20001148
 8002884:	2000114c 	.word	0x2000114c

08002888 <VCP_DeInit>:
 8002888:	2000      	movs	r0, #0
 800288a:	4770      	bx	lr

0800288c <VCP_putchar>:
 800288c:	4a06      	ldr	r2, [pc, #24]	@ (80028a8 <VCP_putchar+0x1c>)
 800288e:	6811      	ldr	r1, [r2, #0]
 8002890:	b410      	push	{r4}
 8002892:	1c4b      	adds	r3, r1, #1
 8002894:	4c05      	ldr	r4, [pc, #20]	@ (80028ac <VCP_putchar+0x20>)
 8002896:	f5b3 6f00 	cmp.w	r3, #2048	@ 0x800
 800289a:	5460      	strb	r0, [r4, r1]
 800289c:	bf08      	it	eq
 800289e:	2300      	moveq	r3, #0
 80028a0:	f85d 4b04 	ldr.w	r4, [sp], #4
 80028a4:	6013      	str	r3, [r2, #0]
 80028a6:	4770      	bx	lr
 80028a8:	200008f4 	.word	0x200008f4
 80028ac:	20000900 	.word	0x20000900

080028b0 <VCP_kbhit>:
 80028b0:	4a03      	ldr	r2, [pc, #12]	@ (80028c0 <VCP_kbhit+0x10>)
 80028b2:	4b04      	ldr	r3, [pc, #16]	@ (80028c4 <VCP_kbhit+0x14>)
 80028b4:	6810      	ldr	r0, [r2, #0]
 80028b6:	681b      	ldr	r3, [r3, #0]
 80028b8:	1ac0      	subs	r0, r0, r3
 80028ba:	bf18      	it	ne
 80028bc:	2001      	movne	r0, #1
 80028be:	4770      	bx	lr
 80028c0:	20001148 	.word	0x20001148
 80028c4:	20001144 	.word	0x20001144

080028c8 <VCP_getchar>:
 80028c8:	4b0c      	ldr	r3, [pc, #48]	@ (80028fc <VCP_getchar+0x34>)
 80028ca:	4a0d      	ldr	r2, [pc, #52]	@ (8002900 <VCP_getchar+0x38>)
 80028cc:	b410      	push	{r4}
 80028ce:	6811      	ldr	r1, [r2, #0]
 80028d0:	681c      	ldr	r4, [r3, #0]
 80028d2:	428c      	cmp	r4, r1
 80028d4:	4603      	mov	r3, r0
 80028d6:	d00d      	beq.n	80028f4 <VCP_getchar+0x2c>
 80028d8:	4c0a      	ldr	r4, [pc, #40]	@ (8002904 <VCP_getchar+0x3c>)
 80028da:	5c61      	ldrb	r1, [r4, r1]
 80028dc:	7019      	strb	r1, [r3, #0]
 80028de:	6813      	ldr	r3, [r2, #0]
 80028e0:	f85d 4b04 	ldr.w	r4, [sp], #4
 80028e4:	2001      	movs	r0, #1
 80028e6:	4403      	add	r3, r0
 80028e8:	f5b3 6f80 	cmp.w	r3, #1024	@ 0x400
 80028ec:	bf08      	it	eq
 80028ee:	2300      	moveq	r3, #0
 80028f0:	6013      	str	r3, [r2, #0]
 80028f2:	4770      	bx	lr
 80028f4:	2000      	movs	r0, #0
 80028f6:	f85d 4b04 	ldr.w	r4, [sp], #4
 80028fa:	4770      	bx	lr
 80028fc:	20001148 	.word	0x20001148
 8002900:	20001144 	.word	0x20001144
 8002904:	2000114c 	.word	0x2000114c

08002908 <USBD_Resume>:
 8002908:	b510      	push	{r4, lr}
 800290a:	f8d0 35e4 	ldr.w	r3, [r0, #1508]	@ 0x5e4
 800290e:	4604      	mov	r4, r0
 8002910:	691b      	ldr	r3, [r3, #16]
 8002912:	4798      	blx	r3
 8002914:	2303      	movs	r3, #3
 8002916:	f884 3112 	strb.w	r3, [r4, #274]	@ 0x112
 800291a:	2000      	movs	r0, #0
 800291c:	bd10      	pop	{r4, pc}
 800291e:	bf00      	nop

08002920 <USBD_Suspend>:
 8002920:	b508      	push	{r3, lr}
 8002922:	2204      	movs	r2, #4
 8002924:	f8d0 35e4 	ldr.w	r3, [r0, #1508]	@ 0x5e4
 8002928:	f880 2112 	strb.w	r2, [r0, #274]	@ 0x112
 800292c:	68db      	ldr	r3, [r3, #12]
 800292e:	4798      	blx	r3
 8002930:	2000      	movs	r0, #0
 8002932:	bd08      	pop	{r3, pc}

08002934 <USBD_SOF>:
 8002934:	b508      	push	{r3, lr}
 8002936:	f8d0 35e0 	ldr.w	r3, [r0, #1504]	@ 0x5e0
 800293a:	69db      	ldr	r3, [r3, #28]
 800293c:	b103      	cbz	r3, 8002940 <USBD_SOF+0xc>
 800293e:	4798      	blx	r3
 8002940:	2000      	movs	r0, #0
 8002942:	bd08      	pop	{r3, pc}

08002944 <USBD_IsoINIncomplete>:
 8002944:	b508      	push	{r3, lr}
 8002946:	f8d0 35e0 	ldr.w	r3, [r0, #1504]	@ 0x5e0
 800294a:	6a1b      	ldr	r3, [r3, #32]
 800294c:	4798      	blx	r3
 800294e:	2000      	movs	r0, #0
 8002950:	bd08      	pop	{r3, pc}
 8002952:	bf00      	nop

08002954 <USBD_IsoOUTIncomplete>:
 8002954:	b508      	push	{r3, lr}
 8002956:	f8d0 35e0 	ldr.w	r3, [r0, #1504]	@ 0x5e0
 800295a:	6a5b      	ldr	r3, [r3, #36]	@ 0x24
 800295c:	4798      	blx	r3
 800295e:	2000      	movs	r0, #0
 8002960:	bd08      	pop	{r3, pc}
 8002962:	bf00      	nop

08002964 <USBD_DevConnected>:
 8002964:	b508      	push	{r3, lr}
 8002966:	f8d0 35e4 	ldr.w	r3, [r0, #1508]	@ 0x5e4
 800296a:	695b      	ldr	r3, [r3, #20]
 800296c:	4798      	blx	r3
 800296e:	2000      	movs	r0, #0
 8002970:	bd08      	pop	{r3, pc}
 8002972:	bf00      	nop

08002974 <USBD_DevDisconnected>:
 8002974:	f8d0 35e4 	ldr.w	r3, [r0, #1508]	@ 0x5e4
 8002978:	b510      	push	{r4, lr}
 800297a:	4604      	mov	r4, r0
 800297c:	699b      	ldr	r3, [r3, #24]
 800297e:	4798      	blx	r3
 8002980:	f8d4 35e0 	ldr.w	r3, [r4, #1504]	@ 0x5e0
 8002984:	2100      	movs	r1, #0
 8002986:	685b      	ldr	r3, [r3, #4]
 8002988:	4620      	mov	r0, r4
 800298a:	4798      	blx	r3
 800298c:	2000      	movs	r0, #0
 800298e:	bd10      	pop	{r4, pc}

08002990 <USBD_Reset>:
 8002990:	2300      	movs	r3, #0
 8002992:	b510      	push	{r4, lr}
 8002994:	4619      	mov	r1, r3
 8002996:	4604      	mov	r4, r0
 8002998:	2240      	movs	r2, #64	@ 0x40
 800299a:	f7ff fa53 	bl	8001e44 <DCD_EP_Open>
 800299e:	2180      	movs	r1, #128	@ 0x80
 80029a0:	2300      	movs	r3, #0
 80029a2:	2240      	movs	r2, #64	@ 0x40
 80029a4:	4620      	mov	r0, r4
 80029a6:	f7ff fa4d 	bl	8001e44 <DCD_EP_Open>
 80029aa:	f8d4 35e4 	ldr.w	r3, [r4, #1508]	@ 0x5e4
 80029ae:	78a0      	ldrb	r0, [r4, #2]
 80029b0:	2201      	movs	r2, #1
 80029b2:	f884 2112 	strb.w	r2, [r4, #274]	@ 0x112
 80029b6:	685b      	ldr	r3, [r3, #4]
 80029b8:	4798      	blx	r3
 80029ba:	2000      	movs	r0, #0
 80029bc:	bd10      	pop	{r4, pc}
 80029be:	bf00      	nop

080029c0 <USBD_SetupStage>:
 80029c0:	b510      	push	{r4, lr}
 80029c2:	b082      	sub	sp, #8
 80029c4:	4669      	mov	r1, sp
 80029c6:	4604      	mov	r4, r0
 80029c8:	f000 fba4 	bl	8003114 <USBD_ParseSetupRequest>
 80029cc:	f89d 1000 	ldrb.w	r1, [sp]
 80029d0:	f001 031f 	and.w	r3, r1, #31
 80029d4:	2b01      	cmp	r3, #1
 80029d6:	d00a      	beq.n	80029ee <USBD_SetupStage+0x2e>
 80029d8:	2b02      	cmp	r3, #2
 80029da:	d016      	beq.n	8002a0a <USBD_SetupStage+0x4a>
 80029dc:	b173      	cbz	r3, 80029fc <USBD_SetupStage+0x3c>
 80029de:	f001 0180 	and.w	r1, r1, #128	@ 0x80
 80029e2:	4620      	mov	r0, r4
 80029e4:	f7ff fac6 	bl	8001f74 <DCD_EP_Stall>
 80029e8:	2000      	movs	r0, #0
 80029ea:	b002      	add	sp, #8
 80029ec:	bd10      	pop	{r4, pc}
 80029ee:	4669      	mov	r1, sp
 80029f0:	4620      	mov	r0, r4
 80029f2:	f000 faf3 	bl	8002fdc <USBD_StdItfReq>
 80029f6:	2000      	movs	r0, #0
 80029f8:	b002      	add	sp, #8
 80029fa:	bd10      	pop	{r4, pc}
 80029fc:	4669      	mov	r1, sp
 80029fe:	4620      	mov	r0, r4
 8002a00:	f000 f96c 	bl	8002cdc <USBD_StdDevReq>
 8002a04:	2000      	movs	r0, #0
 8002a06:	b002      	add	sp, #8
 8002a08:	bd10      	pop	{r4, pc}
 8002a0a:	4669      	mov	r1, sp
 8002a0c:	4620      	mov	r0, r4
 8002a0e:	f000 fb0f 	bl	8003030 <USBD_StdEPReq>
 8002a12:	2000      	movs	r0, #0
 8002a14:	b002      	add	sp, #8
 8002a16:	bd10      	pop	{r4, pc}

08002a18 <USBD_DataInStage>:
 8002a18:	b538      	push	{r3, r4, r5, lr}
 8002a1a:	4604      	mov	r4, r0
 8002a1c:	b929      	cbnz	r1, 8002a2a <USBD_DataInStage+0x12>
 8002a1e:	f890 3111 	ldrb.w	r3, [r0, #273]	@ 0x111
 8002a22:	2b02      	cmp	r3, #2
 8002a24:	d00d      	beq.n	8002a42 <USBD_DataInStage+0x2a>
 8002a26:	2000      	movs	r0, #0
 8002a28:	bd38      	pop	{r3, r4, r5, pc}
 8002a2a:	f8d0 35e0 	ldr.w	r3, [r0, #1504]	@ 0x5e0
 8002a2e:	695b      	ldr	r3, [r3, #20]
 8002a30:	2b00      	cmp	r3, #0
 8002a32:	d0f8      	beq.n	8002a26 <USBD_DataInStage+0xe>
 8002a34:	f890 2112 	ldrb.w	r2, [r0, #274]	@ 0x112
 8002a38:	2a03      	cmp	r2, #3
 8002a3a:	d1f4      	bne.n	8002a26 <USBD_DataInStage+0xe>
 8002a3c:	4798      	blx	r3
 8002a3e:	2000      	movs	r0, #0
 8002a40:	bd38      	pop	{r3, r4, r5, pc}
 8002a42:	f8d0 2134 	ldr.w	r2, [r0, #308]	@ 0x134
 8002a46:	f8d0 3120 	ldr.w	r3, [r0, #288]	@ 0x120
 8002a4a:	429a      	cmp	r2, r3
 8002a4c:	d911      	bls.n	8002a72 <USBD_DataInStage+0x5a>
 8002a4e:	78c0      	ldrb	r0, [r0, #3]
 8002a50:	f8d4 1124 	ldr.w	r1, [r4, #292]	@ 0x124
 8002a54:	2801      	cmp	r0, #1
 8002a56:	eba2 0203 	sub.w	r2, r2, r3
 8002a5a:	bf08      	it	eq
 8002a5c:	18c9      	addeq	r1, r1, r3
 8002a5e:	f8c4 2134 	str.w	r2, [r4, #308]	@ 0x134
 8002a62:	bf08      	it	eq
 8002a64:	f8c4 1124 	streq.w	r1, [r4, #292]	@ 0x124
 8002a68:	b292      	uxth	r2, r2
 8002a6a:	4620      	mov	r0, r4
 8002a6c:	f000 f8f6 	bl	8002c5c <USBD_CtlContinueSendData>
 8002a70:	e7d9      	b.n	8002a26 <USBD_DataInStage+0xe>
 8002a72:	f8d0 2138 	ldr.w	r2, [r0, #312]	@ 0x138
 8002a76:	fbb2 f5f3 	udiv	r5, r2, r3
 8002a7a:	fb03 2515 	mls	r5, r3, r5, r2
 8002a7e:	b95d      	cbnz	r5, 8002a98 <USBD_DataInStage+0x80>
 8002a80:	4293      	cmp	r3, r2
 8002a82:	d809      	bhi.n	8002a98 <USBD_DataInStage+0x80>
 8002a84:	f8d0 313c 	ldr.w	r3, [r0, #316]	@ 0x13c
 8002a88:	429a      	cmp	r2, r3
 8002a8a:	d205      	bcs.n	8002a98 <USBD_DataInStage+0x80>
 8002a8c:	462a      	mov	r2, r5
 8002a8e:	f000 f8e5 	bl	8002c5c <USBD_CtlContinueSendData>
 8002a92:	f8c4 513c 	str.w	r5, [r4, #316]	@ 0x13c
 8002a96:	e7c6      	b.n	8002a26 <USBD_DataInStage+0xe>
 8002a98:	f8d4 35e0 	ldr.w	r3, [r4, #1504]	@ 0x5e0
 8002a9c:	68db      	ldr	r3, [r3, #12]
 8002a9e:	b11b      	cbz	r3, 8002aa8 <USBD_DataInStage+0x90>
 8002aa0:	f894 2112 	ldrb.w	r2, [r4, #274]	@ 0x112
 8002aa4:	2a03      	cmp	r2, #3
 8002aa6:	d003      	beq.n	8002ab0 <USBD_DataInStage+0x98>
 8002aa8:	4620      	mov	r0, r4
 8002aaa:	f000 f907 	bl	8002cbc <USBD_CtlReceiveStatus>
 8002aae:	e7ba      	b.n	8002a26 <USBD_DataInStage+0xe>
 8002ab0:	4620      	mov	r0, r4
 8002ab2:	4798      	blx	r3
 8002ab4:	e7f8      	b.n	8002aa8 <USBD_DataInStage+0x90>
 8002ab6:	bf00      	nop

08002ab8 <USBD_DataOutStage>:
 8002ab8:	b510      	push	{r4, lr}
 8002aba:	4604      	mov	r4, r0
 8002abc:	b929      	cbnz	r1, 8002aca <USBD_DataOutStage+0x12>
 8002abe:	f890 3111 	ldrb.w	r3, [r0, #273]	@ 0x111
 8002ac2:	2b03      	cmp	r3, #3
 8002ac4:	d00d      	beq.n	8002ae2 <USBD_DataOutStage+0x2a>
 8002ac6:	2000      	movs	r0, #0
 8002ac8:	bd10      	pop	{r4, pc}
 8002aca:	f8d0 35e0 	ldr.w	r3, [r0, #1504]	@ 0x5e0
 8002ace:	699b      	ldr	r3, [r3, #24]
 8002ad0:	2b00      	cmp	r3, #0
 8002ad2:	d0f8      	beq.n	8002ac6 <USBD_DataOutStage+0xe>
 8002ad4:	f890 2112 	ldrb.w	r2, [r0, #274]	@ 0x112
 8002ad8:	2a03      	cmp	r2, #3
 8002ada:	d1f4      	bne.n	8002ac6 <USBD_DataOutStage+0xe>
 8002adc:	4798      	blx	r3
 8002ade:	2000      	movs	r0, #0
 8002ae0:	bd10      	pop	{r4, pc}
 8002ae2:	f8d0 338c 	ldr.w	r3, [r0, #908]	@ 0x38c
 8002ae6:	f8d0 2378 	ldr.w	r2, [r0, #888]	@ 0x378
 8002aea:	4293      	cmp	r3, r2
 8002aec:	d913      	bls.n	8002b16 <USBD_DataOutStage+0x5e>
 8002aee:	78c0      	ldrb	r0, [r0, #3]
 8002af0:	f8d4 137c 	ldr.w	r1, [r4, #892]	@ 0x37c
 8002af4:	2801      	cmp	r0, #1
 8002af6:	eba3 0302 	sub.w	r3, r3, r2
 8002afa:	bf04      	itt	eq
 8002afc:	1889      	addeq	r1, r1, r2
 8002afe:	f8c4 137c 	streq.w	r1, [r4, #892]	@ 0x37c
 8002b02:	429a      	cmp	r2, r3
 8002b04:	bf28      	it	cs
 8002b06:	461a      	movcs	r2, r3
 8002b08:	f8c4 338c 	str.w	r3, [r4, #908]	@ 0x38c
 8002b0c:	b292      	uxth	r2, r2
 8002b0e:	4620      	mov	r0, r4
 8002b10:	f000 f8bc 	bl	8002c8c <USBD_CtlContinueRx>
 8002b14:	e7d7      	b.n	8002ac6 <USBD_DataOutStage+0xe>
 8002b16:	f8d0 35e0 	ldr.w	r3, [r0, #1504]	@ 0x5e0
 8002b1a:	691b      	ldr	r3, [r3, #16]
 8002b1c:	b11b      	cbz	r3, 8002b26 <USBD_DataOutStage+0x6e>
 8002b1e:	f890 2112 	ldrb.w	r2, [r0, #274]	@ 0x112
 8002b22:	2a03      	cmp	r2, #3
 8002b24:	d003      	beq.n	8002b2e <USBD_DataOutStage+0x76>
 8002b26:	4620      	mov	r0, r4
 8002b28:	f000 f8b8 	bl	8002c9c <USBD_CtlSendStatus>
 8002b2c:	e7cb      	b.n	8002ac6 <USBD_DataOutStage+0xe>
 8002b2e:	4798      	blx	r3
 8002b30:	e7f9      	b.n	8002b26 <USBD_DataOutStage+0x6e>
 8002b32:	bf00      	nop

08002b34 <USBD_Init>:
 8002b34:	e92d 41f0 	stmdb	sp!, {r4, r5, r6, r7, r8, lr}
 8002b38:	4604      	mov	r4, r0
 8002b3a:	4615      	mov	r5, r2
 8002b3c:	461e      	mov	r6, r3
 8002b3e:	f8dd 8018 	ldr.w	r8, [sp, #24]
 8002b42:	460f      	mov	r7, r1
 8002b44:	f7fe fc82 	bl	800144c <USB_OTG_BSP_Init>
 8002b48:	4620      	mov	r0, r4
 8002b4a:	4639      	mov	r1, r7
 8002b4c:	f8c4 65e0 	str.w	r6, [r4, #1504]	@ 0x5e0
 8002b50:	f8c4 85e4 	str.w	r8, [r4, #1508]	@ 0x5e4
 8002b54:	f8c4 55e8 	str.w	r5, [r4, #1512]	@ 0x5e8
 8002b58:	f7ff f92e 	bl	8001db8 <DCD_Init>
 8002b5c:	f8d4 35e4 	ldr.w	r3, [r4, #1508]	@ 0x5e4
 8002b60:	681b      	ldr	r3, [r3, #0]
 8002b62:	4798      	blx	r3
 8002b64:	4620      	mov	r0, r4
 8002b66:	e8bd 41f0 	ldmia.w	sp!, {r4, r5, r6, r7, r8, lr}
 8002b6a:	f7fe bcb5 	b.w	80014d8 <USB_OTG_BSP_EnableInterrupt>
 8002b6e:	bf00      	nop

08002b70 <USBD_SetCfg>:
 8002b70:	f8d0 35e0 	ldr.w	r3, [r0, #1504]	@ 0x5e0
 8002b74:	b510      	push	{r4, lr}
 8002b76:	4604      	mov	r4, r0
 8002b78:	681b      	ldr	r3, [r3, #0]
 8002b7a:	4798      	blx	r3
 8002b7c:	f8d4 35e4 	ldr.w	r3, [r4, #1508]	@ 0x5e4
 8002b80:	689b      	ldr	r3, [r3, #8]
 8002b82:	4798      	blx	r3
 8002b84:	2000      	movs	r0, #0
 8002b86:	bd10      	pop	{r4, pc}

08002b88 <USBD_ClrCfg>:
 8002b88:	b508      	push	{r3, lr}
 8002b8a:	f8d0 35e0 	ldr.w	r3, [r0, #1504]	@ 0x5e0
 8002b8e:	685b      	ldr	r3, [r3, #4]
 8002b90:	4798      	blx	r3
 8002b92:	2000      	movs	r0, #0
 8002b94:	bd08      	pop	{r3, pc}
 8002b96:	bf00      	nop

08002b98 <USBD_USR_DeviceDescriptor>:
 8002b98:	2312      	movs	r3, #18
 8002b9a:	4801      	ldr	r0, [pc, #4]	@ (8002ba0 <USBD_USR_DeviceDescriptor+0x8>)
 8002b9c:	800b      	strh	r3, [r1, #0]
 8002b9e:	4770      	bx	lr
 8002ba0:	200000ec 	.word	0x200000ec

08002ba4 <USBD_USR_LangIDStrDescriptor>:
 8002ba4:	2304      	movs	r3, #4
 8002ba6:	4801      	ldr	r0, [pc, #4]	@ (8002bac <USBD_USR_LangIDStrDescriptor+0x8>)
 8002ba8:	800b      	strh	r3, [r1, #0]
 8002baa:	4770      	bx	lr
 8002bac:	200000e8 	.word	0x200000e8

08002bb0 <USBD_USR_ProductStrDescriptor>:
 8002bb0:	b510      	push	{r4, lr}
 8002bb2:	4c04      	ldr	r4, [pc, #16]	@ (8002bc4 <USBD_USR_ProductStrDescriptor+0x14>)
 8002bb4:	4804      	ldr	r0, [pc, #16]	@ (8002bc8 <USBD_USR_ProductStrDescriptor+0x18>)
 8002bb6:	460a      	mov	r2, r1
 8002bb8:	4621      	mov	r1, r4
 8002bba:	f000 fad7 	bl	800316c <USBD_GetString>
 8002bbe:	4620      	mov	r0, r4
 8002bc0:	bd10      	pop	{r4, pc}
 8002bc2:	bf00      	nop
 8002bc4:	20001550 	.word	0x20001550
 8002bc8:	08003210 	.word	0x08003210

08002bcc <USBD_USR_ManufacturerStrDescriptor>:
 8002bcc:	b510      	push	{r4, lr}
 8002bce:	4c04      	ldr	r4, [pc, #16]	@ (8002be0 <USBD_USR_ManufacturerStrDescriptor+0x14>)
 8002bd0:	4804      	ldr	r0, [pc, #16]	@ (8002be4 <USBD_USR_ManufacturerStrDescriptor+0x18>)
 8002bd2:	460a      	mov	r2, r1
 8002bd4:	4621      	mov	r1, r4
 8002bd6:	f000 fac9 	bl	800316c <USBD_GetString>
 8002bda:	4620      	mov	r0, r4
 8002bdc:	bd10      	pop	{r4, pc}
 8002bde:	bf00      	nop
 8002be0:	20001550 	.word	0x20001550
 8002be4:	08003228 	.word	0x08003228

08002be8 <USBD_USR_SerialStrDescriptor>:
 8002be8:	b510      	push	{r4, lr}
 8002bea:	4c04      	ldr	r4, [pc, #16]	@ (8002bfc <USBD_USR_SerialStrDescriptor+0x14>)
 8002bec:	4804      	ldr	r0, [pc, #16]	@ (8002c00 <USBD_USR_SerialStrDescriptor+0x18>)
 8002bee:	460a      	mov	r2, r1
 8002bf0:	4621      	mov	r1, r4
 8002bf2:	f000 fabb 	bl	800316c <USBD_GetString>
 8002bf6:	4620      	mov	r0, r4
 8002bf8:	bd10      	pop	{r4, pc}
 8002bfa:	bf00      	nop
 8002bfc:	20001550 	.word	0x20001550
 8002c00:	0800323c 	.word	0x0800323c

08002c04 <USBD_USR_ConfigStrDescriptor>:
 8002c04:	b510      	push	{r4, lr}
 8002c06:	4c04      	ldr	r4, [pc, #16]	@ (8002c18 <USBD_USR_ConfigStrDescriptor+0x14>)
 8002c08:	4804      	ldr	r0, [pc, #16]	@ (8002c1c <USBD_USR_ConfigStrDescriptor+0x18>)
 8002c0a:	460a      	mov	r2, r1
 8002c0c:	4621      	mov	r1, r4
 8002c0e:	f000 faad 	bl	800316c <USBD_GetString>
 8002c12:	4620      	mov	r0, r4
 8002c14:	bd10      	pop	{r4, pc}
 8002c16:	bf00      	nop
 8002c18:	20001550 	.word	0x20001550
 8002c1c:	0800324c 	.word	0x0800324c

08002c20 <USBD_USR_InterfaceStrDescriptor>:
 8002c20:	b510      	push	{r4, lr}
 8002c22:	4c04      	ldr	r4, [pc, #16]	@ (8002c34 <USBD_USR_InterfaceStrDescriptor+0x14>)
 8002c24:	4804      	ldr	r0, [pc, #16]	@ (8002c38 <USBD_USR_InterfaceStrDescriptor+0x18>)
 8002c26:	460a      	mov	r2, r1
 8002c28:	4621      	mov	r1, r4
 8002c2a:	f000 fa9f 	bl	800316c <USBD_GetString>
 8002c2e:	4620      	mov	r0, r4
 8002c30:	bd10      	pop	{r4, pc}
 8002c32:	bf00      	nop
 8002c34:	20001550 	.word	0x20001550
 8002c38:	08003258 	.word	0x08003258

08002c3c <USBD_CtlSendData>:
 8002c3c:	b508      	push	{r3, lr}
 8002c3e:	4613      	mov	r3, r2
 8002c40:	460a      	mov	r2, r1
 8002c42:	2102      	movs	r1, #2
 8002c44:	f8c0 3134 	str.w	r3, [r0, #308]	@ 0x134
 8002c48:	f8c0 3138 	str.w	r3, [r0, #312]	@ 0x138
 8002c4c:	f880 1111 	strb.w	r1, [r0, #273]	@ 0x111
 8002c50:	2100      	movs	r1, #0
 8002c52:	f7ff f96d 	bl	8001f30 <DCD_EP_Tx>
 8002c56:	2000      	movs	r0, #0
 8002c58:	bd08      	pop	{r3, pc}
 8002c5a:	bf00      	nop

08002c5c <USBD_CtlContinueSendData>:
 8002c5c:	b508      	push	{r3, lr}
 8002c5e:	4613      	mov	r3, r2
 8002c60:	460a      	mov	r2, r1
 8002c62:	2100      	movs	r1, #0
 8002c64:	f7ff f964 	bl	8001f30 <DCD_EP_Tx>
 8002c68:	2000      	movs	r0, #0
 8002c6a:	bd08      	pop	{r3, pc}

08002c6c <USBD_CtlPrepareRx>:
 8002c6c:	b508      	push	{r3, lr}
 8002c6e:	4613      	mov	r3, r2
 8002c70:	460a      	mov	r2, r1
 8002c72:	2103      	movs	r1, #3
 8002c74:	f8c0 338c 	str.w	r3, [r0, #908]	@ 0x38c
 8002c78:	f8c0 3390 	str.w	r3, [r0, #912]	@ 0x390
 8002c7c:	f880 1111 	strb.w	r1, [r0, #273]	@ 0x111
 8002c80:	2100      	movs	r1, #0
 8002c82:	f7ff f92f 	bl	8001ee4 <DCD_EP_PrepareRx>
 8002c86:	2000      	movs	r0, #0
 8002c88:	bd08      	pop	{r3, pc}
 8002c8a:	bf00      	nop

08002c8c <USBD_CtlContinueRx>:
 8002c8c:	b508      	push	{r3, lr}
 8002c8e:	4613      	mov	r3, r2
 8002c90:	460a      	mov	r2, r1
 8002c92:	2100      	movs	r1, #0
 8002c94:	f7ff f926 	bl	8001ee4 <DCD_EP_PrepareRx>
 8002c98:	2000      	movs	r0, #0
 8002c9a:	bd08      	pop	{r3, pc}

08002c9c <USBD_CtlSendStatus>:
 8002c9c:	b510      	push	{r4, lr}
 8002c9e:	2300      	movs	r3, #0
 8002ca0:	2104      	movs	r1, #4
 8002ca2:	4604      	mov	r4, r0
 8002ca4:	461a      	mov	r2, r3
 8002ca6:	f880 1111 	strb.w	r1, [r0, #273]	@ 0x111
 8002caa:	4619      	mov	r1, r3
 8002cac:	f7ff f940 	bl	8001f30 <DCD_EP_Tx>
 8002cb0:	4620      	mov	r0, r4
 8002cb2:	f7ff f871 	bl	8001d98 <USB_OTG_EP0_OutStart>
 8002cb6:	2000      	movs	r0, #0
 8002cb8:	bd10      	pop	{r4, pc}
 8002cba:	bf00      	nop

08002cbc <USBD_CtlReceiveStatus>:
 8002cbc:	b510      	push	{r4, lr}
 8002cbe:	2300      	movs	r3, #0
 8002cc0:	2105      	movs	r1, #5
 8002cc2:	4604      	mov	r4, r0
 8002cc4:	461a      	mov	r2, r3
 8002cc6:	f880 1111 	strb.w	r1, [r0, #273]	@ 0x111
 8002cca:	4619      	mov	r1, r3
 8002ccc:	f7ff f90a 	bl	8001ee4 <DCD_EP_PrepareRx>
 8002cd0:	4620      	mov	r0, r4
 8002cd2:	f7ff f861 	bl	8001d98 <USB_OTG_EP0_OutStart>
 8002cd6:	2000      	movs	r0, #0
 8002cd8:	bd10      	pop	{r4, pc}
 8002cda:	bf00      	nop

08002cdc <USBD_StdDevReq>:
 8002cdc:	b570      	push	{r4, r5, r6, lr}
 8002cde:	784b      	ldrb	r3, [r1, #1]
 8002ce0:	b082      	sub	sp, #8
 8002ce2:	460c      	mov	r4, r1
 8002ce4:	4605      	mov	r5, r0
 8002ce6:	2b09      	cmp	r3, #9
 8002ce8:	d813      	bhi.n	8002d12 <USBD_StdDevReq+0x36>
 8002cea:	e8df f003 	tbb	[pc, r3]
 8002cee:	4231      	.short	0x4231
 8002cf0:	22125712 	.word	0x22125712
 8002cf4:	05871270 	.word	0x05871270
 8002cf8:	7889      	ldrb	r1, [r1, #2]
 8002cfa:	4eae      	ldr	r6, [pc, #696]	@ (8002fb4 <USBD_StdDevReq+0x2d8>)
 8002cfc:	2901      	cmp	r1, #1
 8002cfe:	7031      	strb	r1, [r6, #0]
 8002d00:	d807      	bhi.n	8002d12 <USBD_StdDevReq+0x36>
 8002d02:	f890 3112 	ldrb.w	r3, [r0, #274]	@ 0x112
 8002d06:	2b02      	cmp	r3, #2
 8002d08:	f000 80b7 	beq.w	8002e7a <USBD_StdDevReq+0x19e>
 8002d0c:	2b03      	cmp	r3, #3
 8002d0e:	f000 80a1 	beq.w	8002e54 <USBD_StdDevReq+0x178>
 8002d12:	f994 3000 	ldrsb.w	r3, [r4]
 8002d16:	2b00      	cmp	r3, #0
 8002d18:	db01      	blt.n	8002d1e <USBD_StdDevReq+0x42>
 8002d1a:	88e3      	ldrh	r3, [r4, #6]
 8002d1c:	b99b      	cbnz	r3, 8002d46 <USBD_StdDevReq+0x6a>
 8002d1e:	2180      	movs	r1, #128	@ 0x80
 8002d20:	4628      	mov	r0, r5
 8002d22:	f7ff f927 	bl	8001f74 <DCD_EP_Stall>
 8002d26:	4628      	mov	r0, r5
 8002d28:	f7ff f836 	bl	8001d98 <USB_OTG_EP0_OutStart>
 8002d2c:	2000      	movs	r0, #0
 8002d2e:	b002      	add	sp, #8
 8002d30:	bd70      	pop	{r4, r5, r6, pc}
 8002d32:	888b      	ldrh	r3, [r1, #4]
 8002d34:	2b00      	cmp	r3, #0
 8002d36:	d1ec      	bne.n	8002d12 <USBD_StdDevReq+0x36>
 8002d38:	88cb      	ldrh	r3, [r1, #6]
 8002d3a:	2b00      	cmp	r3, #0
 8002d3c:	d073      	beq.n	8002e26 <USBD_StdDevReq+0x14a>
 8002d3e:	f994 3000 	ldrsb.w	r3, [r4]
 8002d42:	2b00      	cmp	r3, #0
 8002d44:	dbeb      	blt.n	8002d1e <USBD_StdDevReq+0x42>
 8002d46:	2100      	movs	r1, #0
 8002d48:	4628      	mov	r0, r5
 8002d4a:	f7ff f913 	bl	8001f74 <DCD_EP_Stall>
 8002d4e:	e7ea      	b.n	8002d26 <USBD_StdDevReq+0x4a>
 8002d50:	f890 3112 	ldrb.w	r3, [r0, #274]	@ 0x112
 8002d54:	3b02      	subs	r3, #2
 8002d56:	2b01      	cmp	r3, #1
 8002d58:	d8db      	bhi.n	8002d12 <USBD_StdDevReq+0x36>
 8002d5a:	f8d0 3114 	ldr.w	r3, [r0, #276]	@ 0x114
 8002d5e:	4996      	ldr	r1, [pc, #600]	@ (8002fb8 <USBD_StdDevReq+0x2dc>)
 8002d60:	2b00      	cmp	r3, #0
 8002d62:	bf0c      	ite	eq
 8002d64:	2301      	moveq	r3, #1
 8002d66:	2303      	movne	r3, #3
 8002d68:	2201      	movs	r2, #1
 8002d6a:	600b      	str	r3, [r1, #0]
 8002d6c:	f7ff ff66 	bl	8002c3c <USBD_CtlSendData>
 8002d70:	e7dc      	b.n	8002d2c <USBD_StdDevReq+0x50>
 8002d72:	f890 3112 	ldrb.w	r3, [r0, #274]	@ 0x112
 8002d76:	3b02      	subs	r3, #2
 8002d78:	2b01      	cmp	r3, #1
 8002d7a:	d8ca      	bhi.n	8002d12 <USBD_StdDevReq+0x36>
 8002d7c:	884b      	ldrh	r3, [r1, #2]
 8002d7e:	2b01      	cmp	r3, #1
 8002d80:	d1d4      	bne.n	8002d2c <USBD_StdDevReq+0x50>
 8002d82:	f8d0 35e0 	ldr.w	r3, [r0, #1504]	@ 0x5e0
 8002d86:	2200      	movs	r2, #0
 8002d88:	689b      	ldr	r3, [r3, #8]
 8002d8a:	f8c0 2114 	str.w	r2, [r0, #276]	@ 0x114
 8002d8e:	4621      	mov	r1, r4
 8002d90:	4628      	mov	r0, r5
 8002d92:	4798      	blx	r3
 8002d94:	4628      	mov	r0, r5
 8002d96:	f7ff ff81 	bl	8002c9c <USBD_CtlSendStatus>
 8002d9a:	e7c7      	b.n	8002d2c <USBD_StdDevReq+0x50>
 8002d9c:	884b      	ldrh	r3, [r1, #2]
 8002d9e:	2b01      	cmp	r3, #1
 8002da0:	f000 80fe 	beq.w	8002fa0 <USBD_StdDevReq+0x2c4>
 8002da4:	2b02      	cmp	r3, #2
 8002da6:	d1c1      	bne.n	8002d2c <USBD_StdDevReq+0x50>
 8002da8:	888b      	ldrh	r3, [r1, #4]
 8002daa:	b2da      	uxtb	r2, r3
 8002dac:	2a00      	cmp	r2, #0
 8002dae:	d1bd      	bne.n	8002d2c <USBD_StdDevReq+0x50>
 8002db0:	6901      	ldr	r1, [r0, #16]
 8002db2:	0a1b      	lsrs	r3, r3, #8
 8002db4:	684a      	ldr	r2, [r1, #4]
 8002db6:	3b01      	subs	r3, #1
 8002db8:	4610      	mov	r0, r2
 8002dba:	2b04      	cmp	r3, #4
 8002dbc:	f200 80da 	bhi.w	8002f74 <USBD_StdDevReq+0x298>
 8002dc0:	e8df f013 	tbh	[pc, r3, lsl #1]
 8002dc4:	00da00df 	.word	0x00da00df
 8002dc8:	00e900d4 	.word	0x00e900d4
 8002dcc:	00e4      	.short	0x00e4
 8002dce:	884a      	ldrh	r2, [r1, #2]
 8002dd0:	0a13      	lsrs	r3, r2, #8
 8002dd2:	3b01      	subs	r3, #1
 8002dd4:	2b06      	cmp	r3, #6
 8002dd6:	d89c      	bhi.n	8002d12 <USBD_StdDevReq+0x36>
 8002dd8:	a101      	add	r1, pc, #4	@ (adr r1, 8002de0 <USBD_StdDevReq+0x104>)
 8002dda:	f851 f023 	ldr.w	pc, [r1, r3, lsl #2]
 8002dde:	bf00      	nop
 8002de0:	08002edb 	.word	0x08002edb
 8002de4:	08002e9f 	.word	0x08002e9f
 8002de8:	08002efb 	.word	0x08002efb
 8002dec:	08002d13 	.word	0x08002d13
 8002df0:	08002d13 	.word	0x08002d13
 8002df4:	08002d13 	.word	0x08002d13
 8002df8:	08002d13 	.word	0x08002d13
 8002dfc:	88ca      	ldrh	r2, [r1, #6]
 8002dfe:	2a01      	cmp	r2, #1
 8002e00:	d006      	beq.n	8002e10 <USBD_StdDevReq+0x134>
 8002e02:	f991 3000 	ldrsb.w	r3, [r1]
 8002e06:	2b00      	cmp	r3, #0
 8002e08:	db89      	blt.n	8002d1e <USBD_StdDevReq+0x42>
 8002e0a:	2a00      	cmp	r2, #0
 8002e0c:	d087      	beq.n	8002d1e <USBD_StdDevReq+0x42>
 8002e0e:	e79a      	b.n	8002d46 <USBD_StdDevReq+0x6a>
 8002e10:	f890 3112 	ldrb.w	r3, [r0, #274]	@ 0x112
 8002e14:	2b02      	cmp	r3, #2
 8002e16:	d03e      	beq.n	8002e96 <USBD_StdDevReq+0x1ba>
 8002e18:	2b03      	cmp	r3, #3
 8002e1a:	d190      	bne.n	8002d3e <USBD_StdDevReq+0x62>
 8002e1c:	f500 7188 	add.w	r1, r0, #272	@ 0x110
 8002e20:	f7ff ff0c 	bl	8002c3c <USBD_CtlSendData>
 8002e24:	e782      	b.n	8002d2c <USBD_StdDevReq+0x50>
 8002e26:	f890 3112 	ldrb.w	r3, [r0, #274]	@ 0x112
 8002e2a:	884c      	ldrh	r4, [r1, #2]
 8002e2c:	2b03      	cmp	r3, #3
 8002e2e:	f43f af76 	beq.w	8002d1e <USBD_StdDevReq+0x42>
 8002e32:	f004 047f 	and.w	r4, r4, #127	@ 0x7f
 8002e36:	f880 4113 	strb.w	r4, [r0, #275]	@ 0x113
 8002e3a:	4621      	mov	r1, r4
 8002e3c:	f7ff f8d2 	bl	8001fe4 <DCD_EP_SetAddress>
 8002e40:	4628      	mov	r0, r5
 8002e42:	f7ff ff2b 	bl	8002c9c <USBD_CtlSendStatus>
 8002e46:	2c00      	cmp	r4, #0
 8002e48:	f000 80b0 	beq.w	8002fac <USBD_StdDevReq+0x2d0>
 8002e4c:	2302      	movs	r3, #2
 8002e4e:	f885 3112 	strb.w	r3, [r5, #274]	@ 0x112
 8002e52:	e76b      	b.n	8002d2c <USBD_StdDevReq+0x50>
 8002e54:	2900      	cmp	r1, #0
 8002e56:	f000 80b3 	beq.w	8002fc0 <USBD_StdDevReq+0x2e4>
 8002e5a:	f890 1110 	ldrb.w	r1, [r0, #272]	@ 0x110
 8002e5e:	2901      	cmp	r1, #1
 8002e60:	d098      	beq.n	8002d94 <USBD_StdDevReq+0xb8>
 8002e62:	f7ff fe91 	bl	8002b88 <USBD_ClrCfg>
 8002e66:	7831      	ldrb	r1, [r6, #0]
 8002e68:	f885 1110 	strb.w	r1, [r5, #272]	@ 0x110
 8002e6c:	4628      	mov	r0, r5
 8002e6e:	f7ff fe7f 	bl	8002b70 <USBD_SetCfg>
 8002e72:	4628      	mov	r0, r5
 8002e74:	f7ff ff12 	bl	8002c9c <USBD_CtlSendStatus>
 8002e78:	e758      	b.n	8002d2c <USBD_StdDevReq+0x50>
 8002e7a:	2900      	cmp	r1, #0
 8002e7c:	d08a      	beq.n	8002d94 <USBD_StdDevReq+0xb8>
 8002e7e:	2101      	movs	r1, #1
 8002e80:	2303      	movs	r3, #3
 8002e82:	f880 1110 	strb.w	r1, [r0, #272]	@ 0x110
 8002e86:	f880 3112 	strb.w	r3, [r0, #274]	@ 0x112
 8002e8a:	f7ff fe71 	bl	8002b70 <USBD_SetCfg>
 8002e8e:	4628      	mov	r0, r5
 8002e90:	f7ff ff04 	bl	8002c9c <USBD_CtlSendStatus>
 8002e94:	e74a      	b.n	8002d2c <USBD_StdDevReq+0x50>
 8002e96:	4949      	ldr	r1, [pc, #292]	@ (8002fbc <USBD_StdDevReq+0x2e0>)
 8002e98:	f7ff fed0 	bl	8002c3c <USBD_CtlSendData>
 8002e9c:	e746      	b.n	8002d2c <USBD_StdDevReq+0x50>
 8002e9e:	f8d0 35e0 	ldr.w	r3, [r0, #1504]	@ 0x5e0
 8002ea2:	7880      	ldrb	r0, [r0, #2]
 8002ea4:	6a9b      	ldr	r3, [r3, #40]	@ 0x28
 8002ea6:	f10d 0106 	add.w	r1, sp, #6
 8002eaa:	4798      	blx	r3
 8002eac:	2302      	movs	r3, #2
 8002eae:	7043      	strb	r3, [r0, #1]
 8002eb0:	f8c5 05ec 	str.w	r0, [r5, #1516]	@ 0x5ec
 8002eb4:	f8bd 3006 	ldrh.w	r3, [sp, #6]
 8002eb8:	2b00      	cmp	r3, #0
 8002eba:	f43f af37 	beq.w	8002d2c <USBD_StdDevReq+0x50>
 8002ebe:	88e2      	ldrh	r2, [r4, #6]
 8002ec0:	2a00      	cmp	r2, #0
 8002ec2:	f43f af33 	beq.w	8002d2c <USBD_StdDevReq+0x50>
 8002ec6:	429a      	cmp	r2, r3
 8002ec8:	bf28      	it	cs
 8002eca:	461a      	movcs	r2, r3
 8002ecc:	4601      	mov	r1, r0
 8002ece:	4628      	mov	r0, r5
 8002ed0:	f8ad 2006 	strh.w	r2, [sp, #6]
 8002ed4:	f7ff feb2 	bl	8002c3c <USBD_CtlSendData>
 8002ed8:	e728      	b.n	8002d2c <USBD_StdDevReq+0x50>
 8002eda:	f8d0 35e8 	ldr.w	r3, [r0, #1512]	@ 0x5e8
 8002ede:	7880      	ldrb	r0, [r0, #2]
 8002ee0:	681b      	ldr	r3, [r3, #0]
 8002ee2:	f10d 0106 	add.w	r1, sp, #6
 8002ee6:	4798      	blx	r3
 8002ee8:	88e2      	ldrh	r2, [r4, #6]
 8002eea:	2a40      	cmp	r2, #64	@ 0x40
 8002eec:	d073      	beq.n	8002fd6 <USBD_StdDevReq+0x2fa>
 8002eee:	f895 3112 	ldrb.w	r3, [r5, #274]	@ 0x112
 8002ef2:	2b01      	cmp	r3, #1
 8002ef4:	d1de      	bne.n	8002eb4 <USBD_StdDevReq+0x1d8>
 8002ef6:	2308      	movs	r3, #8
 8002ef8:	e7e2      	b.n	8002ec0 <USBD_StdDevReq+0x1e4>
 8002efa:	b2d2      	uxtb	r2, r2
 8002efc:	2a05      	cmp	r2, #5
 8002efe:	f63f af08 	bhi.w	8002d12 <USBD_StdDevReq+0x36>
 8002f02:	e8df f002 	tbb	[pc, r2]
 8002f06:	232b      	.short	0x232b
 8002f08:	030b131b 	.word	0x030b131b
 8002f0c:	f8d0 35e8 	ldr.w	r3, [r0, #1512]	@ 0x5e8
 8002f10:	7880      	ldrb	r0, [r0, #2]
 8002f12:	699b      	ldr	r3, [r3, #24]
 8002f14:	f10d 0106 	add.w	r1, sp, #6
 8002f18:	4798      	blx	r3
 8002f1a:	e7cb      	b.n	8002eb4 <USBD_StdDevReq+0x1d8>
 8002f1c:	f8d0 35e8 	ldr.w	r3, [r0, #1512]	@ 0x5e8
 8002f20:	7880      	ldrb	r0, [r0, #2]
 8002f22:	695b      	ldr	r3, [r3, #20]
 8002f24:	f10d 0106 	add.w	r1, sp, #6
 8002f28:	4798      	blx	r3
 8002f2a:	e7c3      	b.n	8002eb4 <USBD_StdDevReq+0x1d8>
 8002f2c:	f8d0 35e8 	ldr.w	r3, [r0, #1512]	@ 0x5e8
 8002f30:	7880      	ldrb	r0, [r0, #2]
 8002f32:	691b      	ldr	r3, [r3, #16]
 8002f34:	f10d 0106 	add.w	r1, sp, #6
 8002f38:	4798      	blx	r3
 8002f3a:	e7bb      	b.n	8002eb4 <USBD_StdDevReq+0x1d8>
 8002f3c:	f8d0 35e8 	ldr.w	r3, [r0, #1512]	@ 0x5e8
 8002f40:	7880      	ldrb	r0, [r0, #2]
 8002f42:	68db      	ldr	r3, [r3, #12]
 8002f44:	f10d 0106 	add.w	r1, sp, #6
 8002f48:	4798      	blx	r3
 8002f4a:	e7b3      	b.n	8002eb4 <USBD_StdDevReq+0x1d8>
 8002f4c:	f8d0 35e8 	ldr.w	r3, [r0, #1512]	@ 0x5e8
 8002f50:	7880      	ldrb	r0, [r0, #2]
 8002f52:	689b      	ldr	r3, [r3, #8]
 8002f54:	f10d 0106 	add.w	r1, sp, #6
 8002f58:	4798      	blx	r3
 8002f5a:	e7ab      	b.n	8002eb4 <USBD_StdDevReq+0x1d8>
 8002f5c:	f8d0 35e8 	ldr.w	r3, [r0, #1512]	@ 0x5e8
 8002f60:	7880      	ldrb	r0, [r0, #2]
 8002f62:	685b      	ldr	r3, [r3, #4]
 8002f64:	f10d 0106 	add.w	r1, sp, #6
 8002f68:	4798      	blx	r3
 8002f6a:	e7a3      	b.n	8002eb4 <USBD_StdDevReq+0x1d8>
 8002f6c:	2303      	movs	r3, #3
 8002f6e:	f363 1006 	bfi	r0, r3, #4, #3
 8002f72:	4602      	mov	r2, r0
 8002f74:	604a      	str	r2, [r1, #4]
 8002f76:	e70d      	b.n	8002d94 <USBD_StdDevReq+0xb8>
 8002f78:	2302      	movs	r3, #2
 8002f7a:	f363 1006 	bfi	r0, r3, #4, #3
 8002f7e:	4602      	mov	r2, r0
 8002f80:	e7f8      	b.n	8002f74 <USBD_StdDevReq+0x298>
 8002f82:	2301      	movs	r3, #1
 8002f84:	f363 1006 	bfi	r0, r3, #4, #3
 8002f88:	4602      	mov	r2, r0
 8002f8a:	e7f3      	b.n	8002f74 <USBD_StdDevReq+0x298>
 8002f8c:	2305      	movs	r3, #5
 8002f8e:	f363 1006 	bfi	r0, r3, #4, #3
 8002f92:	4602      	mov	r2, r0
 8002f94:	e7ee      	b.n	8002f74 <USBD_StdDevReq+0x298>
 8002f96:	2304      	movs	r3, #4
 8002f98:	f363 1006 	bfi	r0, r3, #4, #3
 8002f9c:	4602      	mov	r2, r0
 8002f9e:	e7e9      	b.n	8002f74 <USBD_StdDevReq+0x298>
 8002fa0:	f8d0 25e0 	ldr.w	r2, [r0, #1504]	@ 0x5e0
 8002fa4:	f8c0 3114 	str.w	r3, [r0, #276]	@ 0x114
 8002fa8:	6893      	ldr	r3, [r2, #8]
 8002faa:	e6f0      	b.n	8002d8e <USBD_StdDevReq+0xb2>
 8002fac:	2301      	movs	r3, #1
 8002fae:	f885 3112 	strb.w	r3, [r5, #274]	@ 0x112
 8002fb2:	e6bb      	b.n	8002d2c <USBD_StdDevReq+0x50>
 8002fb4:	2000154c 	.word	0x2000154c
 8002fb8:	20001584 	.word	0x20001584
 8002fbc:	20001588 	.word	0x20001588
 8002fc0:	2302      	movs	r3, #2
 8002fc2:	f880 3112 	strb.w	r3, [r0, #274]	@ 0x112
 8002fc6:	f880 1110 	strb.w	r1, [r0, #272]	@ 0x110
 8002fca:	f7ff fddd 	bl	8002b88 <USBD_ClrCfg>
 8002fce:	4628      	mov	r0, r5
 8002fd0:	f7ff fe64 	bl	8002c9c <USBD_CtlSendStatus>
 8002fd4:	e6aa      	b.n	8002d2c <USBD_StdDevReq+0x50>
 8002fd6:	2308      	movs	r3, #8
 8002fd8:	e775      	b.n	8002ec6 <USBD_StdDevReq+0x1ea>
 8002fda:	bf00      	nop

08002fdc <USBD_StdItfReq>:
 8002fdc:	b538      	push	{r3, r4, r5, lr}
 8002fde:	f890 3112 	ldrb.w	r3, [r0, #274]	@ 0x112
 8002fe2:	2b03      	cmp	r3, #3
 8002fe4:	4604      	mov	r4, r0
 8002fe6:	460d      	mov	r5, r1
 8002fe8:	d10a      	bne.n	8003000 <USBD_StdItfReq+0x24>
 8002fea:	790b      	ldrb	r3, [r1, #4]
 8002fec:	2b01      	cmp	r3, #1
 8002fee:	d807      	bhi.n	8003000 <USBD_StdItfReq+0x24>
 8002ff0:	f8d0 35e0 	ldr.w	r3, [r0, #1504]	@ 0x5e0
 8002ff4:	689b      	ldr	r3, [r3, #8]
 8002ff6:	4798      	blx	r3
 8002ff8:	88eb      	ldrh	r3, [r5, #6]
 8002ffa:	b1ab      	cbz	r3, 8003028 <USBD_StdItfReq+0x4c>
 8002ffc:	2000      	movs	r0, #0
 8002ffe:	bd38      	pop	{r3, r4, r5, pc}
 8003000:	f995 3000 	ldrsb.w	r3, [r5]
 8003004:	2b00      	cmp	r3, #0
 8003006:	db01      	blt.n	800300c <USBD_StdItfReq+0x30>
 8003008:	88eb      	ldrh	r3, [r5, #6]
 800300a:	b943      	cbnz	r3, 800301e <USBD_StdItfReq+0x42>
 800300c:	2180      	movs	r1, #128	@ 0x80
 800300e:	4620      	mov	r0, r4
 8003010:	f7fe ffb0 	bl	8001f74 <DCD_EP_Stall>
 8003014:	4620      	mov	r0, r4
 8003016:	f7fe febf 	bl	8001d98 <USB_OTG_EP0_OutStart>
 800301a:	2000      	movs	r0, #0
 800301c:	bd38      	pop	{r3, r4, r5, pc}
 800301e:	2100      	movs	r1, #0
 8003020:	4620      	mov	r0, r4
 8003022:	f7fe ffa7 	bl	8001f74 <DCD_EP_Stall>
 8003026:	e7f5      	b.n	8003014 <USBD_StdItfReq+0x38>
 8003028:	4620      	mov	r0, r4
 800302a:	f7ff fe37 	bl	8002c9c <USBD_CtlSendStatus>
 800302e:	e7e5      	b.n	8002ffc <USBD_StdItfReq+0x20>

08003030 <USBD_StdEPReq>:
 8003030:	b538      	push	{r3, r4, r5, lr}
 8003032:	460c      	mov	r4, r1
 8003034:	888a      	ldrh	r2, [r1, #4]
 8003036:	7863      	ldrb	r3, [r4, #1]
 8003038:	2b01      	cmp	r3, #1
 800303a:	4605      	mov	r5, r0
 800303c:	b2d1      	uxtb	r1, r2
 800303e:	d004      	beq.n	800304a <USBD_StdEPReq+0x1a>
 8003040:	2b03      	cmp	r3, #3
 8003042:	d035      	beq.n	80030b0 <USBD_StdEPReq+0x80>
 8003044:	b1bb      	cbz	r3, 8003076 <USBD_StdEPReq+0x46>
 8003046:	2000      	movs	r0, #0
 8003048:	bd38      	pop	{r3, r4, r5, pc}
 800304a:	f890 3112 	ldrb.w	r3, [r0, #274]	@ 0x112
 800304e:	2b02      	cmp	r3, #2
 8003050:	d015      	beq.n	800307e <USBD_StdEPReq+0x4e>
 8003052:	2b03      	cmp	r3, #3
 8003054:	d043      	beq.n	80030de <USBD_StdEPReq+0xae>
 8003056:	f994 3000 	ldrsb.w	r3, [r4]
 800305a:	2b00      	cmp	r3, #0
 800305c:	db47      	blt.n	80030ee <USBD_StdEPReq+0xbe>
 800305e:	88e3      	ldrh	r3, [r4, #6]
 8003060:	2b00      	cmp	r3, #0
 8003062:	d044      	beq.n	80030ee <USBD_StdEPReq+0xbe>
 8003064:	2100      	movs	r1, #0
 8003066:	4628      	mov	r0, r5
 8003068:	f7fe ff84 	bl	8001f74 <DCD_EP_Stall>
 800306c:	4628      	mov	r0, r5
 800306e:	f7fe fe93 	bl	8001d98 <USB_OTG_EP0_OutStart>
 8003072:	2000      	movs	r0, #0
 8003074:	bd38      	pop	{r3, r4, r5, pc}
 8003076:	f890 3112 	ldrb.w	r3, [r0, #274]	@ 0x112
 800307a:	2b02      	cmp	r3, #2
 800307c:	d104      	bne.n	8003088 <USBD_StdEPReq+0x58>
 800307e:	064a      	lsls	r2, r1, #25
 8003080:	d0e1      	beq.n	8003046 <USBD_StdEPReq+0x16>
 8003082:	f7fe ff77 	bl	8001f74 <DCD_EP_Stall>
 8003086:	e7de      	b.n	8003046 <USBD_StdEPReq+0x16>
 8003088:	2b03      	cmp	r3, #3
 800308a:	d1e4      	bne.n	8003056 <USBD_StdEPReq+0x26>
 800308c:	0613      	lsls	r3, r2, #24
 800308e:	d433      	bmi.n	80030f8 <USBD_StdEPReq+0xc8>
 8003090:	eb01 0181 	add.w	r1, r1, r1, lsl #2
 8003094:	eb00 01c1 	add.w	r1, r0, r1, lsl #3
 8003098:	f891 3372 	ldrb.w	r3, [r1, #882]	@ 0x372
 800309c:	3b00      	subs	r3, #0
 800309e:	bf18      	it	ne
 80030a0:	2301      	movne	r3, #1
 80030a2:	491b      	ldr	r1, [pc, #108]	@ (8003110 <USBD_StdEPReq+0xe0>)
 80030a4:	2202      	movs	r2, #2
 80030a6:	4628      	mov	r0, r5
 80030a8:	600b      	str	r3, [r1, #0]
 80030aa:	f7ff fdc7 	bl	8002c3c <USBD_CtlSendData>
 80030ae:	e7ca      	b.n	8003046 <USBD_StdEPReq+0x16>
 80030b0:	f890 3112 	ldrb.w	r3, [r0, #274]	@ 0x112
 80030b4:	2b02      	cmp	r3, #2
 80030b6:	d0e2      	beq.n	800307e <USBD_StdEPReq+0x4e>
 80030b8:	2b03      	cmp	r3, #3
 80030ba:	d1cc      	bne.n	8003056 <USBD_StdEPReq+0x26>
 80030bc:	8863      	ldrh	r3, [r4, #2]
 80030be:	b91b      	cbnz	r3, 80030c8 <USBD_StdEPReq+0x98>
 80030c0:	064a      	lsls	r2, r1, #25
 80030c2:	d001      	beq.n	80030c8 <USBD_StdEPReq+0x98>
 80030c4:	f7fe ff56 	bl	8001f74 <DCD_EP_Stall>
 80030c8:	f8d5 35e0 	ldr.w	r3, [r5, #1504]	@ 0x5e0
 80030cc:	4621      	mov	r1, r4
 80030ce:	689b      	ldr	r3, [r3, #8]
 80030d0:	4628      	mov	r0, r5
 80030d2:	4798      	blx	r3
 80030d4:	4628      	mov	r0, r5
 80030d6:	f7ff fde1 	bl	8002c9c <USBD_CtlSendStatus>
 80030da:	2000      	movs	r0, #0
 80030dc:	bd38      	pop	{r3, r4, r5, pc}
 80030de:	8863      	ldrh	r3, [r4, #2]
 80030e0:	2b00      	cmp	r3, #0
 80030e2:	d1b0      	bne.n	8003046 <USBD_StdEPReq+0x16>
 80030e4:	064b      	lsls	r3, r1, #25
 80030e6:	d0f5      	beq.n	80030d4 <USBD_StdEPReq+0xa4>
 80030e8:	f7fe ff62 	bl	8001fb0 <DCD_EP_ClrStall>
 80030ec:	e7ec      	b.n	80030c8 <USBD_StdEPReq+0x98>
 80030ee:	2180      	movs	r1, #128	@ 0x80
 80030f0:	4628      	mov	r0, r5
 80030f2:	f7fe ff3f 	bl	8001f74 <DCD_EP_Stall>
 80030f6:	e7b9      	b.n	800306c <USBD_StdEPReq+0x3c>
 80030f8:	f001 017f 	and.w	r1, r1, #127	@ 0x7f
 80030fc:	eb01 0181 	add.w	r1, r1, r1, lsl #2
 8003100:	eb00 01c1 	add.w	r1, r0, r1, lsl #3
 8003104:	f891 311a 	ldrb.w	r3, [r1, #282]	@ 0x11a
 8003108:	3b00      	subs	r3, #0
 800310a:	bf18      	it	ne
 800310c:	2301      	movne	r3, #1
 800310e:	e7c8      	b.n	80030a2 <USBD_StdEPReq+0x72>
 8003110:	2000158c 	.word	0x2000158c

08003114 <USBD_ParseSetupRequest>:
 8003114:	f8b0 35c8 	ldrh.w	r3, [r0, #1480]	@ 0x5c8
 8003118:	800b      	strh	r3, [r1, #0]
 800311a:	f8b0 35ca 	ldrh.w	r3, [r0, #1482]	@ 0x5ca
 800311e:	804b      	strh	r3, [r1, #2]
 8003120:	f8b0 35cc 	ldrh.w	r3, [r0, #1484]	@ 0x5cc
 8003124:	808b      	strh	r3, [r1, #4]
 8003126:	f8b0 35ce 	ldrh.w	r3, [r0, #1486]	@ 0x5ce
 800312a:	80cb      	strh	r3, [r1, #6]
 800312c:	2201      	movs	r2, #1
 800312e:	f8c0 313c 	str.w	r3, [r0, #316]	@ 0x13c
 8003132:	f880 2111 	strb.w	r2, [r0, #273]	@ 0x111
 8003136:	4770      	bx	lr

08003138 <USBD_CtlError>:
 8003138:	b510      	push	{r4, lr}
 800313a:	f991 3000 	ldrsb.w	r3, [r1]
 800313e:	2b00      	cmp	r3, #0
 8003140:	4604      	mov	r4, r0
 8003142:	db01      	blt.n	8003148 <USBD_CtlError+0x10>
 8003144:	88cb      	ldrh	r3, [r1, #6]
 8003146:	b943      	cbnz	r3, 800315a <USBD_CtlError+0x22>
 8003148:	4620      	mov	r0, r4
 800314a:	2180      	movs	r1, #128	@ 0x80
 800314c:	f7fe ff12 	bl	8001f74 <DCD_EP_Stall>
 8003150:	4620      	mov	r0, r4
 8003152:	e8bd 4010 	ldmia.w	sp!, {r4, lr}
 8003156:	f7fe be1f 	b.w	8001d98 <USB_OTG_EP0_OutStart>
 800315a:	2100      	movs	r1, #0
 800315c:	f7fe ff0a 	bl	8001f74 <DCD_EP_Stall>
 8003160:	4620      	mov	r0, r4
 8003162:	e8bd 4010 	ldmia.w	sp!, {r4, lr}
 8003166:	f7fe be17 	b.w	8001d98 <USB_OTG_EP0_OutStart>
 800316a:	bf00      	nop

0800316c <USBD_GetString>:
 800316c:	b430      	push	{r4, r5}
 800316e:	b300      	cbz	r0, 80031b2 <USBD_GetString+0x46>
 8003170:	7803      	ldrb	r3, [r0, #0]
 8003172:	b303      	cbz	r3, 80031b6 <USBD_GetString+0x4a>
 8003174:	4603      	mov	r3, r0
 8003176:	461c      	mov	r4, r3
 8003178:	f813 5f01 	ldrb.w	r5, [r3, #1]!
 800317c:	2d00      	cmp	r5, #0
 800317e:	d1fa      	bne.n	8003176 <USBD_GetString+0xa>
 8003180:	f1c0 0301 	rsb	r3, r0, #1
 8003184:	4423      	add	r3, r4
 8003186:	b2db      	uxtb	r3, r3
 8003188:	3301      	adds	r3, #1
 800318a:	005b      	lsls	r3, r3, #1
 800318c:	b2dc      	uxtb	r4, r3
 800318e:	8013      	strh	r3, [r2, #0]
 8003190:	2303      	movs	r3, #3
 8003192:	700c      	strb	r4, [r1, #0]
 8003194:	704b      	strb	r3, [r1, #1]
 8003196:	7804      	ldrb	r4, [r0, #0]
 8003198:	b15c      	cbz	r4, 80031b2 <USBD_GetString+0x46>
 800319a:	2302      	movs	r3, #2
 800319c:	2500      	movs	r5, #0
 800319e:	1c5a      	adds	r2, r3, #1
 80031a0:	b2d2      	uxtb	r2, r2
 80031a2:	54cc      	strb	r4, [r1, r3]
 80031a4:	548d      	strb	r5, [r1, r2]
 80031a6:	f810 4f01 	ldrb.w	r4, [r0, #1]!
 80031aa:	3302      	adds	r3, #2
 80031ac:	b2db      	uxtb	r3, r3
 80031ae:	2c00      	cmp	r4, #0
 80031b0:	d1f5      	bne.n	800319e <USBD_GetString+0x32>
 80031b2:	bc30      	pop	{r4, r5}
 80031b4:	4770      	bx	lr
 80031b6:	2402      	movs	r4, #2
 80031b8:	4623      	mov	r3, r4
 80031ba:	e7e8      	b.n	800318e <USBD_GetString+0x22>

080031bc <USBD_USR_Init>:
 80031bc:	4b01      	ldr	r3, [pc, #4]	@ (80031c4 <USBD_USR_Init+0x8>)
 80031be:	2201      	movs	r2, #1
 80031c0:	701a      	strb	r2, [r3, #0]
 80031c2:	4770      	bx	lr
 80031c4:	20001590 	.word	0x20001590

080031c8 <USBD_USR_DeviceReset>:
 80031c8:	4b01      	ldr	r3, [pc, #4]	@ (80031d0 <USBD_USR_DeviceReset+0x8>)
 80031ca:	2201      	movs	r2, #1
 80031cc:	701a      	strb	r2, [r3, #0]
 80031ce:	4770      	bx	lr
 80031d0:	20001590 	.word	0x20001590

080031d4 <USBD_USR_DeviceConfigured>:
 80031d4:	4b01      	ldr	r3, [pc, #4]	@ (80031dc <USBD_USR_DeviceConfigured+0x8>)
 80031d6:	2202      	movs	r2, #2
 80031d8:	701a      	strb	r2, [r3, #0]
 80031da:	4770      	bx	lr
 80031dc:	20001590 	.word	0x20001590

080031e0 <USBD_USR_DeviceResumed>:
 80031e0:	4b01      	ldr	r3, [pc, #4]	@ (80031e8 <USBD_USR_DeviceResumed+0x8>)
 80031e2:	2201      	movs	r2, #1
 80031e4:	701a      	strb	r2, [r3, #0]
 80031e6:	4770      	bx	lr
 80031e8:	20001590 	.word	0x20001590

080031ec <USBD_USR_DeviceConnected>:
 80031ec:	4b01      	ldr	r3, [pc, #4]	@ (80031f4 <USBD_USR_DeviceConnected+0x8>)
 80031ee:	2201      	movs	r2, #1
 80031f0:	701a      	strb	r2, [r3, #0]
 80031f2:	4770      	bx	lr
 80031f4:	20001590 	.word	0x20001590

080031f8 <USBD_USR_DeviceDisconnected>:
 80031f8:	4b01      	ldr	r3, [pc, #4]	@ (8003200 <USBD_USR_DeviceDisconnected+0x8>)
 80031fa:	2201      	movs	r2, #1
 80031fc:	701a      	strb	r2, [r3, #0]
 80031fe:	4770      	bx	lr
 8003200:	20001590 	.word	0x20001590

08003204 <USBD_USR_DeviceSuspended>:
 8003204:	4b01      	ldr	r3, [pc, #4]	@ (800320c <USBD_USR_DeviceSuspended+0x8>)
 8003206:	2201      	movs	r2, #1
 8003208:	701a      	strb	r2, [r3, #0]
 800320a:	4770      	bx	lr
 800320c:	20001590 	.word	0x20001590
 8003210:	334d5453 	.word	0x334d5453
 8003214:	69562032 	.word	0x69562032
 8003218:	61757472 	.word	0x61757472
 800321c:	6f43206c 	.word	0x6f43206c
 8003220:	726f506d 	.word	0x726f506d
 8003224:	00000074 	.word	0x00000074
 8003228:	694d5453 	.word	0x694d5453
 800322c:	656f7263 	.word	0x656f7263
 8003230:	7463656c 	.word	0x7463656c
 8003234:	696e6f72 	.word	0x696e6f72
 8003238:	00007363 	.word	0x00007363
 800323c:	30303030 	.word	0x30303030
 8003240:	30303030 	.word	0x30303030
 8003244:	43303530 	.word	0x43303530
 8003248:	00000000 	.word	0x00000000
 800324c:	20504356 	.word	0x20504356
 8003250:	666e6f43 	.word	0x666e6f43
 8003254:	00006769 	.word	0x00006769
 8003258:	20504356 	.word	0x20504356
 800325c:	65746e49 	.word	0x65746e49
 8003260:	63616672 	.word	0x63616672
 8003264:	00000065 	.word	0x00000065
